
umbrellaFella.elf:     file format elf32-littlearm

Sections:
Idx Name          Size      VMA       LMA       File off  Algn
  0 .isr_vector   000001c4  08000000  08000000  00001000  2**0
                  CONTENTS, ALLOC, LOAD, READONLY, DATA
  1 .text         00003400  080001d0  080001d0  000011d0  2**4
                  CONTENTS, ALLOC, LOAD, READONLY, CODE
  2 .rodata       0000007c  080035d0  080035d0  000045d0  2**0
                  CONTENTS, ALLOC, LOAD, READONLY, DATA
  3 .ARM.extab    00000000  0800364c  0800364c  00005068  2**0
                  CONTENTS, READONLY
  4 .ARM          00000008  0800364c  0800364c  0000464c  2**2
                  CONTENTS, ALLOC, LOAD, READONLY, DATA
  5 .preinit_array 00000000  08003654  08003654  00005068  2**0
                  CONTENTS, ALLOC, LOAD, DATA
  6 .init_array   00000004  08003654  08003654  00004654  2**2
                  CONTENTS, ALLOC, LOAD, READONLY, DATA
  7 .fini_array   00000004  08003658  08003658  00004658  2**2
                  CONTENTS, ALLOC, LOAD, READONLY, DATA
  8 .data         00000068  20000000  0800365c  00005000  2**2
                  CONTENTS, ALLOC, LOAD, DATA
  9 .bss          00000248  20000068  080036c4  00005068  2**2
                  ALLOC
 10 ._user_heap_stack 00000600  200002b0  080036c4  000052b0  2**0
                  ALLOC
 11 .ARM.attributes 00000030  00000000  00000000  00005068  2**0
                  CONTENTS, READONLY
 12 .comment      00000043  00000000  00000000  00005098  2**0
                  CONTENTS, READONLY
 13 .debug_frame  00000934  00000000  00000000  000050dc  2**2
                  CONTENTS, READONLY, DEBUGGING, OCTETS

Disassembly of section .text:

080001d0 <__do_global_dtors_aux>:
 80001d0:	b510      	push	{r4, lr}
 80001d2:	4c05      	ldr	r4, [pc, #20]	@ (80001e8 <__do_global_dtors_aux+0x18>)
 80001d4:	7823      	ldrb	r3, [r4, #0]
 80001d6:	b933      	cbnz	r3, 80001e6 <__do_global_dtors_aux+0x16>
 80001d8:	4b04      	ldr	r3, [pc, #16]	@ (80001ec <__do_global_dtors_aux+0x1c>)
 80001da:	b113      	cbz	r3, 80001e2 <__do_global_dtors_aux+0x12>
 80001dc:	4804      	ldr	r0, [pc, #16]	@ (80001f0 <__do_global_dtors_aux+0x20>)
 80001de:	f3af 8000 	nop.w
 80001e2:	2301      	movs	r3, #1
 80001e4:	7023      	strb	r3, [r4, #0]
 80001e6:	bd10      	pop	{r4, pc}
 80001e8:	20000068 	.word	0x20000068
 80001ec:	00000000 	.word	0x00000000
 80001f0:	080035b8 	.word	0x080035b8

080001f4 <frame_dummy>:
 80001f4:	b508      	push	{r3, lr}
 80001f6:	4b03      	ldr	r3, [pc, #12]	@ (8000204 <frame_dummy+0x10>)
 80001f8:	b11b      	cbz	r3, 8000202 <frame_dummy+0xe>
 80001fa:	4903      	ldr	r1, [pc, #12]	@ (8000208 <frame_dummy+0x14>)
 80001fc:	4803      	ldr	r0, [pc, #12]	@ (800020c <frame_dummy+0x18>)
 80001fe:	f3af 8000 	nop.w
 8000202:	bd08      	pop	{r3, pc}
 8000204:	00000000 	.word	0x00000000
 8000208:	2000006c 	.word	0x2000006c
 800020c:	080035b8 	.word	0x080035b8

08000210 <memchr>:
 8000210:	f001 01ff 	and.w	r1, r1, #255	@ 0xff
 8000214:	2a10      	cmp	r2, #16
 8000216:	db2b      	blt.n	8000270 <memchr+0x60>
 8000218:	f010 0f07 	tst.w	r0, #7
 800021c:	d008      	beq.n	8000230 <memchr+0x20>
 800021e:	f810 3b01 	ldrb.w	r3, [r0], #1
 8000222:	3a01      	subs	r2, #1
 8000224:	428b      	cmp	r3, r1
 8000226:	d02d      	beq.n	8000284 <memchr+0x74>
 8000228:	f010 0f07 	tst.w	r0, #7
 800022c:	b342      	cbz	r2, 8000280 <memchr+0x70>
 800022e:	d1f6      	bne.n	800021e <memchr+0xe>
 8000230:	b4f0      	push	{r4, r5, r6, r7}
 8000232:	ea41 2101 	orr.w	r1, r1, r1, lsl #8
 8000236:	ea41 4101 	orr.w	r1, r1, r1, lsl #16
 800023a:	f022 0407 	bic.w	r4, r2, #7
 800023e:	f07f 0700 	mvns.w	r7, #0
 8000242:	2300      	movs	r3, #0
 8000244:	e8f0 5602 	ldrd	r5, r6, [r0], #8
 8000248:	3c08      	subs	r4, #8
 800024a:	ea85 0501 	eor.w	r5, r5, r1
 800024e:	ea86 0601 	eor.w	r6, r6, r1
 8000252:	fa85 f547 	uadd8	r5, r5, r7
 8000256:	faa3 f587 	sel	r5, r3, r7
 800025a:	fa86 f647 	uadd8	r6, r6, r7
 800025e:	faa5 f687 	sel	r6, r5, r7
 8000262:	b98e      	cbnz	r6, 8000288 <memchr+0x78>
 8000264:	d1ee      	bne.n	8000244 <memchr+0x34>
 8000266:	bcf0      	pop	{r4, r5, r6, r7}
 8000268:	f001 01ff 	and.w	r1, r1, #255	@ 0xff
 800026c:	f002 0207 	and.w	r2, r2, #7
 8000270:	b132      	cbz	r2, 8000280 <memchr+0x70>
 8000272:	f810 3b01 	ldrb.w	r3, [r0], #1
 8000276:	3a01      	subs	r2, #1
 8000278:	ea83 0301 	eor.w	r3, r3, r1
 800027c:	b113      	cbz	r3, 8000284 <memchr+0x74>
 800027e:	d1f8      	bne.n	8000272 <memchr+0x62>
 8000280:	2000      	movs	r0, #0
 8000282:	4770      	bx	lr
 8000284:	3801      	subs	r0, #1
 8000286:	4770      	bx	lr
 8000288:	2d00      	cmp	r5, #0
 800028a:	bf06      	itte	eq
 800028c:	4635      	moveq	r5, r6
 800028e:	3803      	subeq	r0, #3
 8000290:	3807      	subne	r0, #7
 8000292:	f015 0f01 	tst.w	r5, #1
 8000296:	d107      	bne.n	80002a8 <memchr+0x98>
 8000298:	3001      	adds	r0, #1
 800029a:	f415 7f80 	tst.w	r5, #256	@ 0x100
 800029e:	bf02      	ittt	eq
 80002a0:	3001      	addeq	r0, #1
 80002a2:	f415 3fc0 	tsteq.w	r5, #98304	@ 0x18000
 80002a6:	3001      	addeq	r0, #1
 80002a8:	bcf0      	pop	{r4, r5, r6, r7}
 80002aa:	3801      	subs	r0, #1
 80002ac:	4770      	bx	lr
 80002ae:	bf00      	nop

080002b0 <__aeabi_dmul>:
 80002b0:	b570      	push	{r4, r5, r6, lr}
 80002b2:	f04f 0cff 	mov.w	ip, #255	@ 0xff
 80002b6:	f44c 6ce0 	orr.w	ip, ip, #1792	@ 0x700
 80002ba:	ea1c 5411 	ands.w	r4, ip, r1, lsr #20
 80002be:	bf1d      	ittte	ne
 80002c0:	ea1c 5513 	andsne.w	r5, ip, r3, lsr #20
 80002c4:	ea94 0f0c 	teqne	r4, ip
 80002c8:	ea95 0f0c 	teqne	r5, ip
 80002cc:	f000 f8de 	bleq	800048c <__aeabi_dmul+0x1dc>
 80002d0:	442c      	add	r4, r5
 80002d2:	ea81 0603 	eor.w	r6, r1, r3
 80002d6:	ea21 514c 	bic.w	r1, r1, ip, lsl #21
 80002da:	ea23 534c 	bic.w	r3, r3, ip, lsl #21
 80002de:	ea50 3501 	orrs.w	r5, r0, r1, lsl #12
 80002e2:	bf18      	it	ne
 80002e4:	ea52 3503 	orrsne.w	r5, r2, r3, lsl #12
 80002e8:	f441 1180 	orr.w	r1, r1, #1048576	@ 0x100000
 80002ec:	f443 1380 	orr.w	r3, r3, #1048576	@ 0x100000
 80002f0:	d038      	beq.n	8000364 <__aeabi_dmul+0xb4>
 80002f2:	fba0 ce02 	umull	ip, lr, r0, r2
 80002f6:	f04f 0500 	mov.w	r5, #0
 80002fa:	fbe1 e502 	umlal	lr, r5, r1, r2
 80002fe:	f006 4200 	and.w	r2, r6, #2147483648	@ 0x80000000
 8000302:	fbe0 e503 	umlal	lr, r5, r0, r3
 8000306:	f04f 0600 	mov.w	r6, #0
 800030a:	fbe1 5603 	umlal	r5, r6, r1, r3
 800030e:	f09c 0f00 	teq	ip, #0
 8000312:	bf18      	it	ne
 8000314:	f04e 0e01 	orrne.w	lr, lr, #1
 8000318:	f1a4 04ff 	sub.w	r4, r4, #255	@ 0xff
 800031c:	f5b6 7f00 	cmp.w	r6, #512	@ 0x200
 8000320:	f564 7440 	sbc.w	r4, r4, #768	@ 0x300
 8000324:	d204      	bcs.n	8000330 <__aeabi_dmul+0x80>
 8000326:	ea5f 0e4e 	movs.w	lr, lr, lsl #1
 800032a:	416d      	adcs	r5, r5
 800032c:	eb46 0606 	adc.w	r6, r6, r6
 8000330:	ea42 21c6 	orr.w	r1, r2, r6, lsl #11
 8000334:	ea41 5155 	orr.w	r1, r1, r5, lsr #21
 8000338:	ea4f 20c5 	mov.w	r0, r5, lsl #11
 800033c:	ea40 505e 	orr.w	r0, r0, lr, lsr #21
 8000340:	ea4f 2ece 	mov.w	lr, lr, lsl #11
 8000344:	f1b4 0cfd 	subs.w	ip, r4, #253	@ 0xfd
 8000348:	bf88      	it	hi
 800034a:	f5bc 6fe0 	cmphi.w	ip, #1792	@ 0x700
 800034e:	d81e      	bhi.n	800038e <__aeabi_dmul+0xde>
 8000350:	f1be 4f00 	cmp.w	lr, #2147483648	@ 0x80000000
 8000354:	bf08      	it	eq
 8000356:	ea5f 0e50 	movseq.w	lr, r0, lsr #1
 800035a:	f150 0000 	adcs.w	r0, r0, #0
 800035e:	eb41 5104 	adc.w	r1, r1, r4, lsl #20
 8000362:	bd70      	pop	{r4, r5, r6, pc}
 8000364:	f006 4600 	and.w	r6, r6, #2147483648	@ 0x80000000
 8000368:	ea46 0101 	orr.w	r1, r6, r1
 800036c:	ea40 0002 	orr.w	r0, r0, r2
 8000370:	ea81 0103 	eor.w	r1, r1, r3
 8000374:	ebb4 045c 	subs.w	r4, r4, ip, lsr #1
 8000378:	bfc2      	ittt	gt
 800037a:	ebd4 050c 	rsbsgt	r5, r4, ip
 800037e:	ea41 5104 	orrgt.w	r1, r1, r4, lsl #20
 8000382:	bd70      	popgt	{r4, r5, r6, pc}
 8000384:	f441 1180 	orr.w	r1, r1, #1048576	@ 0x100000
 8000388:	f04f 0e00 	mov.w	lr, #0
 800038c:	3c01      	subs	r4, #1
 800038e:	f300 80ab 	bgt.w	80004e8 <__aeabi_dmul+0x238>
 8000392:	f114 0f36 	cmn.w	r4, #54	@ 0x36
 8000396:	bfde      	ittt	le
 8000398:	2000      	movle	r0, #0
 800039a:	f001 4100 	andle.w	r1, r1, #2147483648	@ 0x80000000
 800039e:	bd70      	pople	{r4, r5, r6, pc}
 80003a0:	f1c4 0400 	rsb	r4, r4, #0
 80003a4:	3c20      	subs	r4, #32
 80003a6:	da35      	bge.n	8000414 <__aeabi_dmul+0x164>
 80003a8:	340c      	adds	r4, #12
 80003aa:	dc1b      	bgt.n	80003e4 <__aeabi_dmul+0x134>
 80003ac:	f104 0414 	add.w	r4, r4, #20
 80003b0:	f1c4 0520 	rsb	r5, r4, #32
 80003b4:	fa00 f305 	lsl.w	r3, r0, r5
 80003b8:	fa20 f004 	lsr.w	r0, r0, r4
 80003bc:	fa01 f205 	lsl.w	r2, r1, r5
 80003c0:	ea40 0002 	orr.w	r0, r0, r2
 80003c4:	f001 4200 	and.w	r2, r1, #2147483648	@ 0x80000000
 80003c8:	f021 4100 	bic.w	r1, r1, #2147483648	@ 0x80000000
 80003cc:	eb10 70d3 	adds.w	r0, r0, r3, lsr #31
 80003d0:	fa21 f604 	lsr.w	r6, r1, r4
 80003d4:	eb42 0106 	adc.w	r1, r2, r6
 80003d8:	ea5e 0e43 	orrs.w	lr, lr, r3, lsl #1
 80003dc:	bf08      	it	eq
 80003de:	ea20 70d3 	biceq.w	r0, r0, r3, lsr #31
 80003e2:	bd70      	pop	{r4, r5, r6, pc}
 80003e4:	f1c4 040c 	rsb	r4, r4, #12
 80003e8:	f1c4 0520 	rsb	r5, r4, #32
 80003ec:	fa00 f304 	lsl.w	r3, r0, r4
 80003f0:	fa20 f005 	lsr.w	r0, r0, r5
 80003f4:	fa01 f204 	lsl.w	r2, r1, r4
 80003f8:	ea40 0002 	orr.w	r0, r0, r2
 80003fc:	f001 4100 	and.w	r1, r1, #2147483648	@ 0x80000000
 8000400:	eb10 70d3 	adds.w	r0, r0, r3, lsr #31
 8000404:	f141 0100 	adc.w	r1, r1, #0
 8000408:	ea5e 0e43 	orrs.w	lr, lr, r3, lsl #1
 800040c:	bf08      	it	eq
 800040e:	ea20 70d3 	biceq.w	r0, r0, r3, lsr #31
 8000412:	bd70      	pop	{r4, r5, r6, pc}
 8000414:	f1c4 0520 	rsb	r5, r4, #32
 8000418:	fa00 f205 	lsl.w	r2, r0, r5
 800041c:	ea4e 0e02 	orr.w	lr, lr, r2
 8000420:	fa20 f304 	lsr.w	r3, r0, r4
 8000424:	fa01 f205 	lsl.w	r2, r1, r5
 8000428:	ea43 0302 	orr.w	r3, r3, r2
 800042c:	fa21 f004 	lsr.w	r0, r1, r4
 8000430:	f001 4100 	and.w	r1, r1, #2147483648	@ 0x80000000
 8000434:	fa21 f204 	lsr.w	r2, r1, r4
 8000438:	ea20 0002 	bic.w	r0, r0, r2
 800043c:	eb00 70d3 	add.w	r0, r0, r3, lsr #31
 8000440:	ea5e 0e43 	orrs.w	lr, lr, r3, lsl #1
 8000444:	bf08      	it	eq
 8000446:	ea20 70d3 	biceq.w	r0, r0, r3, lsr #31
 800044a:	bd70      	pop	{r4, r5, r6, pc}
 800044c:	f094 0f00 	teq	r4, #0
 8000450:	d10f      	bne.n	8000472 <__aeabi_dmul+0x1c2>
 8000452:	f001 4600 	and.w	r6, r1, #2147483648	@ 0x80000000
 8000456:	0040      	lsls	r0, r0, #1
 8000458:	eb41 0101 	adc.w	r1, r1, r1
 800045c:	f411 1f80 	tst.w	r1, #1048576	@ 0x100000
 8000460:	bf08      	it	eq
 8000462:	3c01      	subeq	r4, #1
 8000464:	d0f7      	beq.n	8000456 <__aeabi_dmul+0x1a6>
 8000466:	ea41 0106 	orr.w	r1, r1, r6
 800046a:	f095 0f00 	teq	r5, #0
 800046e:	bf18      	it	ne
 8000470:	4770      	bxne	lr
 8000472:	f003 4600 	and.w	r6, r3, #2147483648	@ 0x80000000
 8000476:	0052      	lsls	r2, r2, #1
 8000478:	eb43 0303 	adc.w	r3, r3, r3
 800047c:	f413 1f80 	tst.w	r3, #1048576	@ 0x100000
 8000480:	bf08      	it	eq
 8000482:	3d01      	subeq	r5, #1
 8000484:	d0f7      	beq.n	8000476 <__aeabi_dmul+0x1c6>
 8000486:	ea43 0306 	orr.w	r3, r3, r6
 800048a:	4770      	bx	lr
 800048c:	ea94 0f0c 	teq	r4, ip
 8000490:	ea0c 5513 	and.w	r5, ip, r3, lsr #20
 8000494:	bf18      	it	ne
 8000496:	ea95 0f0c 	teqne	r5, ip
 800049a:	d00c      	beq.n	80004b6 <__aeabi_dmul+0x206>
 800049c:	ea50 0641 	orrs.w	r6, r0, r1, lsl #1
 80004a0:	bf18      	it	ne
 80004a2:	ea52 0643 	orrsne.w	r6, r2, r3, lsl #1
 80004a6:	d1d1      	bne.n	800044c <__aeabi_dmul+0x19c>
 80004a8:	ea81 0103 	eor.w	r1, r1, r3
 80004ac:	f001 4100 	and.w	r1, r1, #2147483648	@ 0x80000000
 80004b0:	f04f 0000 	mov.w	r0, #0
 80004b4:	bd70      	pop	{r4, r5, r6, pc}
 80004b6:	ea50 0641 	orrs.w	r6, r0, r1, lsl #1
 80004ba:	bf06      	itte	eq
 80004bc:	4610      	moveq	r0, r2
 80004be:	4619      	moveq	r1, r3
 80004c0:	ea52 0643 	orrsne.w	r6, r2, r3, lsl #1
 80004c4:	d019      	beq.n	80004fa <__aeabi_dmul+0x24a>
 80004c6:	ea94 0f0c 	teq	r4, ip
 80004ca:	d102      	bne.n	80004d2 <__aeabi_dmul+0x222>
 80004cc:	ea50 3601 	orrs.w	r6, r0, r1, lsl #12
 80004d0:	d113      	bne.n	80004fa <__aeabi_dmul+0x24a>
 80004d2:	ea95 0f0c 	teq	r5, ip
 80004d6:	d105      	bne.n	80004e4 <__aeabi_dmul+0x234>
 80004d8:	ea52 3603 	orrs.w	r6, r2, r3, lsl #12
 80004dc:	bf1c      	itt	ne
 80004de:	4610      	movne	r0, r2
 80004e0:	4619      	movne	r1, r3
 80004e2:	d10a      	bne.n	80004fa <__aeabi_dmul+0x24a>
 80004e4:	ea81 0103 	eor.w	r1, r1, r3
 80004e8:	f001 4100 	and.w	r1, r1, #2147483648	@ 0x80000000
 80004ec:	f041 41fe 	orr.w	r1, r1, #2130706432	@ 0x7f000000
 80004f0:	f441 0170 	orr.w	r1, r1, #15728640	@ 0xf00000
 80004f4:	f04f 0000 	mov.w	r0, #0
 80004f8:	bd70      	pop	{r4, r5, r6, pc}
 80004fa:	f041 41fe 	orr.w	r1, r1, #2130706432	@ 0x7f000000
 80004fe:	f441 0178 	orr.w	r1, r1, #16252928	@ 0xf80000
 8000502:	bd70      	pop	{r4, r5, r6, pc}

08000504 <__aeabi_drsub>:
 8000504:	f081 4100 	eor.w	r1, r1, #2147483648	@ 0x80000000
 8000508:	e002      	b.n	8000510 <__adddf3>
 800050a:	bf00      	nop

0800050c <__aeabi_dsub>:
 800050c:	f083 4300 	eor.w	r3, r3, #2147483648	@ 0x80000000

08000510 <__adddf3>:
 8000510:	b530      	push	{r4, r5, lr}
 8000512:	ea4f 0441 	mov.w	r4, r1, lsl #1
 8000516:	ea4f 0543 	mov.w	r5, r3, lsl #1
 800051a:	ea94 0f05 	teq	r4, r5
 800051e:	bf08      	it	eq
 8000520:	ea90 0f02 	teqeq	r0, r2
 8000524:	bf1f      	itttt	ne
 8000526:	ea54 0c00 	orrsne.w	ip, r4, r0
 800052a:	ea55 0c02 	orrsne.w	ip, r5, r2
 800052e:	ea7f 5c64 	mvnsne.w	ip, r4, asr #21
 8000532:	ea7f 5c65 	mvnsne.w	ip, r5, asr #21
 8000536:	f000 80e2 	beq.w	80006fe <__adddf3+0x1ee>
 800053a:	ea4f 5454 	mov.w	r4, r4, lsr #21
 800053e:	ebd4 5555 	rsbs	r5, r4, r5, lsr #21
 8000542:	bfb8      	it	lt
 8000544:	426d      	neglt	r5, r5
 8000546:	dd0c      	ble.n	8000562 <__adddf3+0x52>
 8000548:	442c      	add	r4, r5
 800054a:	ea80 0202 	eor.w	r2, r0, r2
 800054e:	ea81 0303 	eor.w	r3, r1, r3
 8000552:	ea82 0000 	eor.w	r0, r2, r0
 8000556:	ea83 0101 	eor.w	r1, r3, r1
 800055a:	ea80 0202 	eor.w	r2, r0, r2
 800055e:	ea81 0303 	eor.w	r3, r1, r3
 8000562:	2d36      	cmp	r5, #54	@ 0x36
 8000564:	bf88      	it	hi
 8000566:	bd30      	pophi	{r4, r5, pc}
 8000568:	f011 4f00 	tst.w	r1, #2147483648	@ 0x80000000
 800056c:	ea4f 3101 	mov.w	r1, r1, lsl #12
 8000570:	f44f 1c80 	mov.w	ip, #1048576	@ 0x100000
 8000574:	ea4c 3111 	orr.w	r1, ip, r1, lsr #12
 8000578:	d002      	beq.n	8000580 <__adddf3+0x70>
 800057a:	4240      	negs	r0, r0
 800057c:	eb61 0141 	sbc.w	r1, r1, r1, lsl #1
 8000580:	f013 4f00 	tst.w	r3, #2147483648	@ 0x80000000
 8000584:	ea4f 3303 	mov.w	r3, r3, lsl #12
 8000588:	ea4c 3313 	orr.w	r3, ip, r3, lsr #12
 800058c:	d002      	beq.n	8000594 <__adddf3+0x84>
 800058e:	4252      	negs	r2, r2
 8000590:	eb63 0343 	sbc.w	r3, r3, r3, lsl #1
 8000594:	ea94 0f05 	teq	r4, r5
 8000598:	f000 80a7 	beq.w	80006ea <__adddf3+0x1da>
 800059c:	f1a4 0401 	sub.w	r4, r4, #1
 80005a0:	f1d5 0e20 	rsbs	lr, r5, #32
 80005a4:	db0d      	blt.n	80005c2 <__adddf3+0xb2>
 80005a6:	fa02 fc0e 	lsl.w	ip, r2, lr
 80005aa:	fa22 f205 	lsr.w	r2, r2, r5
 80005ae:	1880      	adds	r0, r0, r2
 80005b0:	f141 0100 	adc.w	r1, r1, #0
 80005b4:	fa03 f20e 	lsl.w	r2, r3, lr
 80005b8:	1880      	adds	r0, r0, r2
 80005ba:	fa43 f305 	asr.w	r3, r3, r5
 80005be:	4159      	adcs	r1, r3
 80005c0:	e00e      	b.n	80005e0 <__adddf3+0xd0>
 80005c2:	f1a5 0520 	sub.w	r5, r5, #32
 80005c6:	f10e 0e20 	add.w	lr, lr, #32
 80005ca:	2a01      	cmp	r2, #1
 80005cc:	fa03 fc0e 	lsl.w	ip, r3, lr
 80005d0:	bf28      	it	cs
 80005d2:	f04c 0c02 	orrcs.w	ip, ip, #2
 80005d6:	fa43 f305 	asr.w	r3, r3, r5
 80005da:	18c0      	adds	r0, r0, r3
 80005dc:	eb51 71e3 	adcs.w	r1, r1, r3, asr #31
 80005e0:	f001 4500 	and.w	r5, r1, #2147483648	@ 0x80000000
 80005e4:	d507      	bpl.n	80005f6 <__adddf3+0xe6>
 80005e6:	f04f 0e00 	mov.w	lr, #0
 80005ea:	f1dc 0c00 	rsbs	ip, ip, #0
 80005ee:	eb7e 0000 	sbcs.w	r0, lr, r0
 80005f2:	eb6e 0101 	sbc.w	r1, lr, r1
 80005f6:	f5b1 1f80 	cmp.w	r1, #1048576	@ 0x100000
 80005fa:	d31b      	bcc.n	8000634 <__adddf3+0x124>
 80005fc:	f5b1 1f00 	cmp.w	r1, #2097152	@ 0x200000
 8000600:	d30c      	bcc.n	800061c <__adddf3+0x10c>
 8000602:	0849      	lsrs	r1, r1, #1
 8000604:	ea5f 0030 	movs.w	r0, r0, rrx
 8000608:	ea4f 0c3c 	mov.w	ip, ip, rrx
 800060c:	f104 0401 	add.w	r4, r4, #1
 8000610:	ea4f 5244 	mov.w	r2, r4, lsl #21
 8000614:	f512 0f80 	cmn.w	r2, #4194304	@ 0x400000
 8000618:	f080 809a 	bcs.w	8000750 <__adddf3+0x240>
 800061c:	f1bc 4f00 	cmp.w	ip, #2147483648	@ 0x80000000
 8000620:	bf08      	it	eq
 8000622:	ea5f 0c50 	movseq.w	ip, r0, lsr #1
 8000626:	f150 0000 	adcs.w	r0, r0, #0
 800062a:	eb41 5104 	adc.w	r1, r1, r4, lsl #20
 800062e:	ea41 0105 	orr.w	r1, r1, r5
 8000632:	bd30      	pop	{r4, r5, pc}
 8000634:	ea5f 0c4c 	movs.w	ip, ip, lsl #1
 8000638:	4140      	adcs	r0, r0
 800063a:	eb41 0101 	adc.w	r1, r1, r1
 800063e:	3c01      	subs	r4, #1
 8000640:	bf28      	it	cs
 8000642:	f5b1 1f80 	cmpcs.w	r1, #1048576	@ 0x100000
 8000646:	d2e9      	bcs.n	800061c <__adddf3+0x10c>
 8000648:	f091 0f00 	teq	r1, #0
 800064c:	bf04      	itt	eq
 800064e:	4601      	moveq	r1, r0
 8000650:	2000      	moveq	r0, #0
 8000652:	fab1 f381 	clz	r3, r1
 8000656:	bf08      	it	eq
 8000658:	3320      	addeq	r3, #32
 800065a:	f1a3 030b 	sub.w	r3, r3, #11
 800065e:	f1b3 0220 	subs.w	r2, r3, #32
 8000662:	da0c      	bge.n	800067e <__adddf3+0x16e>
 8000664:	320c      	adds	r2, #12
 8000666:	dd08      	ble.n	800067a <__adddf3+0x16a>
 8000668:	f102 0c14 	add.w	ip, r2, #20
 800066c:	f1c2 020c 	rsb	r2, r2, #12
 8000670:	fa01 f00c 	lsl.w	r0, r1, ip
 8000674:	fa21 f102 	lsr.w	r1, r1, r2
 8000678:	e00c      	b.n	8000694 <__adddf3+0x184>
 800067a:	f102 0214 	add.w	r2, r2, #20
 800067e:	bfd8      	it	le
 8000680:	f1c2 0c20 	rsble	ip, r2, #32
 8000684:	fa01 f102 	lsl.w	r1, r1, r2
 8000688:	fa20 fc0c 	lsr.w	ip, r0, ip
 800068c:	bfdc      	itt	le
 800068e:	ea41 010c 	orrle.w	r1, r1, ip
 8000692:	4090      	lslle	r0, r2
 8000694:	1ae4      	subs	r4, r4, r3
 8000696:	bfa2      	ittt	ge
 8000698:	eb01 5104 	addge.w	r1, r1, r4, lsl #20
 800069c:	4329      	orrge	r1, r5
 800069e:	bd30      	popge	{r4, r5, pc}
 80006a0:	ea6f 0404 	mvn.w	r4, r4
 80006a4:	3c1f      	subs	r4, #31
 80006a6:	da1c      	bge.n	80006e2 <__adddf3+0x1d2>
 80006a8:	340c      	adds	r4, #12
 80006aa:	dc0e      	bgt.n	80006ca <__adddf3+0x1ba>
 80006ac:	f104 0414 	add.w	r4, r4, #20
 80006b0:	f1c4 0220 	rsb	r2, r4, #32
 80006b4:	fa20 f004 	lsr.w	r0, r0, r4
 80006b8:	fa01 f302 	lsl.w	r3, r1, r2
 80006bc:	ea40 0003 	orr.w	r0, r0, r3
 80006c0:	fa21 f304 	lsr.w	r3, r1, r4
 80006c4:	ea45 0103 	orr.w	r1, r5, r3
 80006c8:	bd30      	pop	{r4, r5, pc}
 80006ca:	f1c4 040c 	rsb	r4, r4, #12
 80006ce:	f1c4 0220 	rsb	r2, r4, #32
 80006d2:	fa20 f002 	lsr.w	r0, r0, r2
 80006d6:	fa01 f304 	lsl.w	r3, r1, r4
 80006da:	ea40 0003 	orr.w	r0, r0, r3
 80006de:	4629      	mov	r1, r5
 80006e0:	bd30      	pop	{r4, r5, pc}
 80006e2:	fa21 f004 	lsr.w	r0, r1, r4
 80006e6:	4629      	mov	r1, r5
 80006e8:	bd30      	pop	{r4, r5, pc}
 80006ea:	f094 0f00 	teq	r4, #0
 80006ee:	f483 1380 	eor.w	r3, r3, #1048576	@ 0x100000
 80006f2:	bf06      	itte	eq
 80006f4:	f481 1180 	eoreq.w	r1, r1, #1048576	@ 0x100000
 80006f8:	3401      	addeq	r4, #1
 80006fa:	3d01      	subne	r5, #1
 80006fc:	e74e      	b.n	800059c <__adddf3+0x8c>
 80006fe:	ea7f 5c64 	mvns.w	ip, r4, asr #21
 8000702:	bf18      	it	ne
 8000704:	ea7f 5c65 	mvnsne.w	ip, r5, asr #21
 8000708:	d029      	beq.n	800075e <__adddf3+0x24e>
 800070a:	ea94 0f05 	teq	r4, r5
 800070e:	bf08      	it	eq
 8000710:	ea90 0f02 	teqeq	r0, r2
 8000714:	d005      	beq.n	8000722 <__adddf3+0x212>
 8000716:	ea54 0c00 	orrs.w	ip, r4, r0
 800071a:	bf04      	itt	eq
 800071c:	4619      	moveq	r1, r3
 800071e:	4610      	moveq	r0, r2
 8000720:	bd30      	pop	{r4, r5, pc}
 8000722:	ea91 0f03 	teq	r1, r3
 8000726:	bf1e      	ittt	ne
 8000728:	2100      	movne	r1, #0
 800072a:	2000      	movne	r0, #0
 800072c:	bd30      	popne	{r4, r5, pc}
 800072e:	ea5f 5c54 	movs.w	ip, r4, lsr #21
 8000732:	d105      	bne.n	8000740 <__adddf3+0x230>
 8000734:	0040      	lsls	r0, r0, #1
 8000736:	4149      	adcs	r1, r1
 8000738:	bf28      	it	cs
 800073a:	f041 4100 	orrcs.w	r1, r1, #2147483648	@ 0x80000000
 800073e:	bd30      	pop	{r4, r5, pc}
 8000740:	f514 0480 	adds.w	r4, r4, #4194304	@ 0x400000
 8000744:	bf3c      	itt	cc
 8000746:	f501 1180 	addcc.w	r1, r1, #1048576	@ 0x100000
 800074a:	bd30      	popcc	{r4, r5, pc}
 800074c:	f001 4500 	and.w	r5, r1, #2147483648	@ 0x80000000
 8000750:	f045 41fe 	orr.w	r1, r5, #2130706432	@ 0x7f000000
 8000754:	f441 0170 	orr.w	r1, r1, #15728640	@ 0xf00000
 8000758:	f04f 0000 	mov.w	r0, #0
 800075c:	bd30      	pop	{r4, r5, pc}
 800075e:	ea7f 5c64 	mvns.w	ip, r4, asr #21
 8000762:	bf1a      	itte	ne
 8000764:	4619      	movne	r1, r3
 8000766:	4610      	movne	r0, r2
 8000768:	ea7f 5c65 	mvnseq.w	ip, r5, asr #21
 800076c:	bf1c      	itt	ne
 800076e:	460b      	movne	r3, r1
 8000770:	4602      	movne	r2, r0
 8000772:	ea50 3401 	orrs.w	r4, r0, r1, lsl #12
 8000776:	bf06      	itte	eq
 8000778:	ea52 3503 	orrseq.w	r5, r2, r3, lsl #12
 800077c:	ea91 0f03 	teqeq	r1, r3
 8000780:	f441 2100 	orrne.w	r1, r1, #524288	@ 0x80000
 8000784:	bd30      	pop	{r4, r5, pc}
 8000786:	bf00      	nop

08000788 <__aeabi_ui2d>:
 8000788:	f090 0f00 	teq	r0, #0
 800078c:	bf04      	itt	eq
 800078e:	2100      	moveq	r1, #0
 8000790:	4770      	bxeq	lr
 8000792:	b530      	push	{r4, r5, lr}
 8000794:	f44f 6480 	mov.w	r4, #1024	@ 0x400
 8000798:	f104 0432 	add.w	r4, r4, #50	@ 0x32
 800079c:	f04f 0500 	mov.w	r5, #0
 80007a0:	f04f 0100 	mov.w	r1, #0
 80007a4:	e750      	b.n	8000648 <__adddf3+0x138>
 80007a6:	bf00      	nop

080007a8 <__aeabi_i2d>:
 80007a8:	f090 0f00 	teq	r0, #0
 80007ac:	bf04      	itt	eq
 80007ae:	2100      	moveq	r1, #0
 80007b0:	4770      	bxeq	lr
 80007b2:	b530      	push	{r4, r5, lr}
 80007b4:	f44f 6480 	mov.w	r4, #1024	@ 0x400
 80007b8:	f104 0432 	add.w	r4, r4, #50	@ 0x32
 80007bc:	f010 4500 	ands.w	r5, r0, #2147483648	@ 0x80000000
 80007c0:	bf48      	it	mi
 80007c2:	4240      	negmi	r0, r0
 80007c4:	f04f 0100 	mov.w	r1, #0
 80007c8:	e73e      	b.n	8000648 <__adddf3+0x138>
 80007ca:	bf00      	nop

080007cc <__aeabi_f2d>:
 80007cc:	0042      	lsls	r2, r0, #1
 80007ce:	ea4f 01e2 	mov.w	r1, r2, asr #3
 80007d2:	ea4f 0131 	mov.w	r1, r1, rrx
 80007d6:	ea4f 7002 	mov.w	r0, r2, lsl #28
 80007da:	bf1f      	itttt	ne
 80007dc:	f012 437f 	andsne.w	r3, r2, #4278190080	@ 0xff000000
 80007e0:	f093 4f7f 	teqne	r3, #4278190080	@ 0xff000000
 80007e4:	f081 5160 	eorne.w	r1, r1, #939524096	@ 0x38000000
 80007e8:	4770      	bxne	lr
 80007ea:	f032 427f 	bics.w	r2, r2, #4278190080	@ 0xff000000
 80007ee:	bf08      	it	eq
 80007f0:	4770      	bxeq	lr
 80007f2:	f093 4f7f 	teq	r3, #4278190080	@ 0xff000000
 80007f6:	bf04      	itt	eq
 80007f8:	f441 2100 	orreq.w	r1, r1, #524288	@ 0x80000
 80007fc:	4770      	bxeq	lr
 80007fe:	b530      	push	{r4, r5, lr}
 8000800:	f44f 7460 	mov.w	r4, #896	@ 0x380
 8000804:	f001 4500 	and.w	r5, r1, #2147483648	@ 0x80000000
 8000808:	f021 4100 	bic.w	r1, r1, #2147483648	@ 0x80000000
 800080c:	e71c      	b.n	8000648 <__adddf3+0x138>
 800080e:	bf00      	nop

08000810 <__aeabi_ul2d>:
 8000810:	ea50 0201 	orrs.w	r2, r0, r1
 8000814:	bf08      	it	eq
 8000816:	4770      	bxeq	lr
 8000818:	b530      	push	{r4, r5, lr}
 800081a:	f04f 0500 	mov.w	r5, #0
 800081e:	e00a      	b.n	8000836 <__aeabi_l2d+0x16>

08000820 <__aeabi_l2d>:
 8000820:	ea50 0201 	orrs.w	r2, r0, r1
 8000824:	bf08      	it	eq
 8000826:	4770      	bxeq	lr
 8000828:	b530      	push	{r4, r5, lr}
 800082a:	f011 4500 	ands.w	r5, r1, #2147483648	@ 0x80000000
 800082e:	d502      	bpl.n	8000836 <__aeabi_l2d+0x16>
 8000830:	4240      	negs	r0, r0
 8000832:	eb61 0141 	sbc.w	r1, r1, r1, lsl #1
 8000836:	f44f 6480 	mov.w	r4, #1024	@ 0x400
 800083a:	f104 0432 	add.w	r4, r4, #50	@ 0x32
 800083e:	ea5f 5c91 	movs.w	ip, r1, lsr #22
 8000842:	f43f aed8 	beq.w	80005f6 <__adddf3+0xe6>
 8000846:	f04f 0203 	mov.w	r2, #3
 800084a:	ea5f 0cdc 	movs.w	ip, ip, lsr #3
 800084e:	bf18      	it	ne
 8000850:	3203      	addne	r2, #3
 8000852:	ea5f 0cdc 	movs.w	ip, ip, lsr #3
 8000856:	bf18      	it	ne
 8000858:	3203      	addne	r2, #3
 800085a:	eb02 02dc 	add.w	r2, r2, ip, lsr #3
 800085e:	f1c2 0320 	rsb	r3, r2, #32
 8000862:	fa00 fc03 	lsl.w	ip, r0, r3
 8000866:	fa20 f002 	lsr.w	r0, r0, r2
 800086a:	fa01 fe03 	lsl.w	lr, r1, r3
 800086e:	ea40 000e 	orr.w	r0, r0, lr
 8000872:	fa21 f102 	lsr.w	r1, r1, r2
 8000876:	4414      	add	r4, r2
 8000878:	e6bd      	b.n	80005f6 <__adddf3+0xe6>
 800087a:	bf00      	nop

0800087c <__aeabi_d2uiz>:
 800087c:	004a      	lsls	r2, r1, #1
 800087e:	d211      	bcs.n	80008a4 <__aeabi_d2uiz+0x28>
 8000880:	f512 1200 	adds.w	r2, r2, #2097152	@ 0x200000
 8000884:	d211      	bcs.n	80008aa <__aeabi_d2uiz+0x2e>
 8000886:	d50d      	bpl.n	80008a4 <__aeabi_d2uiz+0x28>
 8000888:	f46f 7378 	mvn.w	r3, #992	@ 0x3e0
 800088c:	ebb3 5262 	subs.w	r2, r3, r2, asr #21
 8000890:	d40e      	bmi.n	80008b0 <__aeabi_d2uiz+0x34>
 8000892:	ea4f 23c1 	mov.w	r3, r1, lsl #11
 8000896:	f043 4300 	orr.w	r3, r3, #2147483648	@ 0x80000000
 800089a:	ea43 5350 	orr.w	r3, r3, r0, lsr #21
 800089e:	fa23 f002 	lsr.w	r0, r3, r2
 80008a2:	4770      	bx	lr
 80008a4:	f04f 0000 	mov.w	r0, #0
 80008a8:	4770      	bx	lr
 80008aa:	ea50 3001 	orrs.w	r0, r0, r1, lsl #12
 80008ae:	d102      	bne.n	80008b6 <__aeabi_d2uiz+0x3a>
 80008b0:	f04f 30ff 	mov.w	r0, #4294967295
 80008b4:	4770      	bx	lr
 80008b6:	f04f 0000 	mov.w	r0, #0
 80008ba:	4770      	bx	lr

080008bc <__aeabi_uldivmod>:
 80008bc:	b953      	cbnz	r3, 80008d4 <__aeabi_uldivmod+0x18>
 80008be:	b94a      	cbnz	r2, 80008d4 <__aeabi_uldivmod+0x18>
 80008c0:	2900      	cmp	r1, #0
 80008c2:	bf08      	it	eq
 80008c4:	2800      	cmpeq	r0, #0
 80008c6:	bf1c      	itt	ne
 80008c8:	f04f 31ff 	movne.w	r1, #4294967295
 80008cc:	f04f 30ff 	movne.w	r0, #4294967295
 80008d0:	f000 b988 	b.w	8000be4 <__aeabi_idiv0>
 80008d4:	f1ad 0c08 	sub.w	ip, sp, #8
 80008d8:	e96d ce04 	strd	ip, lr, [sp, #-16]!
 80008dc:	f000 f806 	bl	80008ec <__udivmoddi4>
 80008e0:	f8dd e004 	ldr.w	lr, [sp, #4]
 80008e4:	e9dd 2302 	ldrd	r2, r3, [sp, #8]
 80008e8:	b004      	add	sp, #16
 80008ea:	4770      	bx	lr

080008ec <__udivmoddi4>:
 80008ec:	e92d 47f0 	stmdb	sp!, {r4, r5, r6, r7, r8, r9, sl, lr}
 80008f0:	9d08      	ldr	r5, [sp, #32]
 80008f2:	468e      	mov	lr, r1
 80008f4:	4604      	mov	r4, r0
 80008f6:	4688      	mov	r8, r1
 80008f8:	2b00      	cmp	r3, #0
 80008fa:	d14a      	bne.n	8000992 <__udivmoddi4+0xa6>
 80008fc:	428a      	cmp	r2, r1
 80008fe:	4617      	mov	r7, r2
 8000900:	d962      	bls.n	80009c8 <__udivmoddi4+0xdc>
 8000902:	fab2 f682 	clz	r6, r2
 8000906:	b14e      	cbz	r6, 800091c <__udivmoddi4+0x30>
 8000908:	f1c6 0320 	rsb	r3, r6, #32
 800090c:	fa01 f806 	lsl.w	r8, r1, r6
 8000910:	fa20 f303 	lsr.w	r3, r0, r3
 8000914:	40b7      	lsls	r7, r6
 8000916:	ea43 0808 	orr.w	r8, r3, r8
 800091a:	40b4      	lsls	r4, r6
 800091c:	ea4f 4e17 	mov.w	lr, r7, lsr #16
 8000920:	fa1f fc87 	uxth.w	ip, r7
 8000924:	fbb8 f1fe 	udiv	r1, r8, lr
 8000928:	0c23      	lsrs	r3, r4, #16
 800092a:	fb0e 8811 	mls	r8, lr, r1, r8
 800092e:	ea43 4308 	orr.w	r3, r3, r8, lsl #16
 8000932:	fb01 f20c 	mul.w	r2, r1, ip
 8000936:	429a      	cmp	r2, r3
 8000938:	d909      	bls.n	800094e <__udivmoddi4+0x62>
 800093a:	18fb      	adds	r3, r7, r3
 800093c:	f101 30ff 	add.w	r0, r1, #4294967295
 8000940:	f080 80ea 	bcs.w	8000b18 <__udivmoddi4+0x22c>
 8000944:	429a      	cmp	r2, r3
 8000946:	f240 80e7 	bls.w	8000b18 <__udivmoddi4+0x22c>
 800094a:	3902      	subs	r1, #2
 800094c:	443b      	add	r3, r7
 800094e:	1a9a      	subs	r2, r3, r2
 8000950:	b2a3      	uxth	r3, r4
 8000952:	fbb2 f0fe 	udiv	r0, r2, lr
 8000956:	fb0e 2210 	mls	r2, lr, r0, r2
 800095a:	ea43 4302 	orr.w	r3, r3, r2, lsl #16
 800095e:	fb00 fc0c 	mul.w	ip, r0, ip
 8000962:	459c      	cmp	ip, r3
 8000964:	d909      	bls.n	800097a <__udivmoddi4+0x8e>
 8000966:	18fb      	adds	r3, r7, r3
 8000968:	f100 32ff 	add.w	r2, r0, #4294967295
 800096c:	f080 80d6 	bcs.w	8000b1c <__udivmoddi4+0x230>
 8000970:	459c      	cmp	ip, r3
 8000972:	f240 80d3 	bls.w	8000b1c <__udivmoddi4+0x230>
 8000976:	443b      	add	r3, r7
 8000978:	3802      	subs	r0, #2
 800097a:	ea40 4001 	orr.w	r0, r0, r1, lsl #16
 800097e:	eba3 030c 	sub.w	r3, r3, ip
 8000982:	2100      	movs	r1, #0
 8000984:	b11d      	cbz	r5, 800098e <__udivmoddi4+0xa2>
 8000986:	40f3      	lsrs	r3, r6
 8000988:	2200      	movs	r2, #0
 800098a:	e9c5 3200 	strd	r3, r2, [r5]
 800098e:	e8bd 87f0 	ldmia.w	sp!, {r4, r5, r6, r7, r8, r9, sl, pc}
 8000992:	428b      	cmp	r3, r1
 8000994:	d905      	bls.n	80009a2 <__udivmoddi4+0xb6>
 8000996:	b10d      	cbz	r5, 800099c <__udivmoddi4+0xb0>
 8000998:	e9c5 0100 	strd	r0, r1, [r5]
 800099c:	2100      	movs	r1, #0
 800099e:	4608      	mov	r0, r1
 80009a0:	e7f5      	b.n	800098e <__udivmoddi4+0xa2>
 80009a2:	fab3 f183 	clz	r1, r3
 80009a6:	2900      	cmp	r1, #0
 80009a8:	d146      	bne.n	8000a38 <__udivmoddi4+0x14c>
 80009aa:	4573      	cmp	r3, lr
 80009ac:	d302      	bcc.n	80009b4 <__udivmoddi4+0xc8>
 80009ae:	4282      	cmp	r2, r0
 80009b0:	f200 8105 	bhi.w	8000bbe <__udivmoddi4+0x2d2>
 80009b4:	1a84      	subs	r4, r0, r2
 80009b6:	eb6e 0203 	sbc.w	r2, lr, r3
 80009ba:	2001      	movs	r0, #1
 80009bc:	4690      	mov	r8, r2
 80009be:	2d00      	cmp	r5, #0
 80009c0:	d0e5      	beq.n	800098e <__udivmoddi4+0xa2>
 80009c2:	e9c5 4800 	strd	r4, r8, [r5]
 80009c6:	e7e2      	b.n	800098e <__udivmoddi4+0xa2>
 80009c8:	2a00      	cmp	r2, #0
 80009ca:	f000 8090 	beq.w	8000aee <__udivmoddi4+0x202>
 80009ce:	fab2 f682 	clz	r6, r2
 80009d2:	2e00      	cmp	r6, #0
 80009d4:	f040 80a4 	bne.w	8000b20 <__udivmoddi4+0x234>
 80009d8:	1a8a      	subs	r2, r1, r2
 80009da:	0c03      	lsrs	r3, r0, #16
 80009dc:	ea4f 4e17 	mov.w	lr, r7, lsr #16
 80009e0:	b280      	uxth	r0, r0
 80009e2:	b2bc      	uxth	r4, r7
 80009e4:	2101      	movs	r1, #1
 80009e6:	fbb2 fcfe 	udiv	ip, r2, lr
 80009ea:	fb0e 221c 	mls	r2, lr, ip, r2
 80009ee:	ea43 4302 	orr.w	r3, r3, r2, lsl #16
 80009f2:	fb04 f20c 	mul.w	r2, r4, ip
 80009f6:	429a      	cmp	r2, r3
 80009f8:	d907      	bls.n	8000a0a <__udivmoddi4+0x11e>
 80009fa:	18fb      	adds	r3, r7, r3
 80009fc:	f10c 38ff 	add.w	r8, ip, #4294967295
 8000a00:	d202      	bcs.n	8000a08 <__udivmoddi4+0x11c>
 8000a02:	429a      	cmp	r2, r3
 8000a04:	f200 80e0 	bhi.w	8000bc8 <__udivmoddi4+0x2dc>
 8000a08:	46c4      	mov	ip, r8
 8000a0a:	1a9b      	subs	r3, r3, r2
 8000a0c:	fbb3 f2fe 	udiv	r2, r3, lr
 8000a10:	fb0e 3312 	mls	r3, lr, r2, r3
 8000a14:	ea40 4303 	orr.w	r3, r0, r3, lsl #16
 8000a18:	fb02 f404 	mul.w	r4, r2, r4
 8000a1c:	429c      	cmp	r4, r3
 8000a1e:	d907      	bls.n	8000a30 <__udivmoddi4+0x144>
 8000a20:	18fb      	adds	r3, r7, r3
 8000a22:	f102 30ff 	add.w	r0, r2, #4294967295
 8000a26:	d202      	bcs.n	8000a2e <__udivmoddi4+0x142>
 8000a28:	429c      	cmp	r4, r3
 8000a2a:	f200 80ca 	bhi.w	8000bc2 <__udivmoddi4+0x2d6>
 8000a2e:	4602      	mov	r2, r0
 8000a30:	1b1b      	subs	r3, r3, r4
 8000a32:	ea42 400c 	orr.w	r0, r2, ip, lsl #16
 8000a36:	e7a5      	b.n	8000984 <__udivmoddi4+0x98>
 8000a38:	f1c1 0620 	rsb	r6, r1, #32
 8000a3c:	408b      	lsls	r3, r1
 8000a3e:	fa22 f706 	lsr.w	r7, r2, r6
 8000a42:	431f      	orrs	r7, r3
 8000a44:	fa0e f401 	lsl.w	r4, lr, r1
 8000a48:	fa20 f306 	lsr.w	r3, r0, r6
 8000a4c:	fa2e fe06 	lsr.w	lr, lr, r6
 8000a50:	ea4f 4917 	mov.w	r9, r7, lsr #16
 8000a54:	4323      	orrs	r3, r4
 8000a56:	fa00 f801 	lsl.w	r8, r0, r1
 8000a5a:	fa1f fc87 	uxth.w	ip, r7
 8000a5e:	fbbe f0f9 	udiv	r0, lr, r9
 8000a62:	0c1c      	lsrs	r4, r3, #16
 8000a64:	fb09 ee10 	mls	lr, r9, r0, lr
 8000a68:	ea44 440e 	orr.w	r4, r4, lr, lsl #16
 8000a6c:	fb00 fe0c 	mul.w	lr, r0, ip
 8000a70:	45a6      	cmp	lr, r4
 8000a72:	fa02 f201 	lsl.w	r2, r2, r1
 8000a76:	d909      	bls.n	8000a8c <__udivmoddi4+0x1a0>
 8000a78:	193c      	adds	r4, r7, r4
 8000a7a:	f100 3aff 	add.w	sl, r0, #4294967295
 8000a7e:	f080 809c 	bcs.w	8000bba <__udivmoddi4+0x2ce>
 8000a82:	45a6      	cmp	lr, r4
 8000a84:	f240 8099 	bls.w	8000bba <__udivmoddi4+0x2ce>
 8000a88:	3802      	subs	r0, #2
 8000a8a:	443c      	add	r4, r7
 8000a8c:	eba4 040e 	sub.w	r4, r4, lr
 8000a90:	fa1f fe83 	uxth.w	lr, r3
 8000a94:	fbb4 f3f9 	udiv	r3, r4, r9
 8000a98:	fb09 4413 	mls	r4, r9, r3, r4
 8000a9c:	ea4e 4404 	orr.w	r4, lr, r4, lsl #16
 8000aa0:	fb03 fc0c 	mul.w	ip, r3, ip
 8000aa4:	45a4      	cmp	ip, r4
 8000aa6:	d908      	bls.n	8000aba <__udivmoddi4+0x1ce>
 8000aa8:	193c      	adds	r4, r7, r4
 8000aaa:	f103 3eff 	add.w	lr, r3, #4294967295
 8000aae:	f080 8082 	bcs.w	8000bb6 <__udivmoddi4+0x2ca>
 8000ab2:	45a4      	cmp	ip, r4
 8000ab4:	d97f      	bls.n	8000bb6 <__udivmoddi4+0x2ca>
 8000ab6:	3b02      	subs	r3, #2
 8000ab8:	443c      	add	r4, r7
 8000aba:	ea43 4000 	orr.w	r0, r3, r0, lsl #16
 8000abe:	eba4 040c 	sub.w	r4, r4, ip
 8000ac2:	fba0 ec02 	umull	lr, ip, r0, r2
 8000ac6:	4564      	cmp	r4, ip
 8000ac8:	4673      	mov	r3, lr
 8000aca:	46e1      	mov	r9, ip
 8000acc:	d362      	bcc.n	8000b94 <__udivmoddi4+0x2a8>
 8000ace:	d05f      	beq.n	8000b90 <__udivmoddi4+0x2a4>
 8000ad0:	b15d      	cbz	r5, 8000aea <__udivmoddi4+0x1fe>
 8000ad2:	ebb8 0203 	subs.w	r2, r8, r3
 8000ad6:	eb64 0409 	sbc.w	r4, r4, r9
 8000ada:	fa04 f606 	lsl.w	r6, r4, r6
 8000ade:	fa22 f301 	lsr.w	r3, r2, r1
 8000ae2:	431e      	orrs	r6, r3
 8000ae4:	40cc      	lsrs	r4, r1
 8000ae6:	e9c5 6400 	strd	r6, r4, [r5]
 8000aea:	2100      	movs	r1, #0
 8000aec:	e74f      	b.n	800098e <__udivmoddi4+0xa2>
 8000aee:	fbb1 fcf2 	udiv	ip, r1, r2
 8000af2:	0c01      	lsrs	r1, r0, #16
 8000af4:	ea41 410e 	orr.w	r1, r1, lr, lsl #16
 8000af8:	b280      	uxth	r0, r0
 8000afa:	ea40 4201 	orr.w	r2, r0, r1, lsl #16
 8000afe:	463b      	mov	r3, r7
 8000b00:	4638      	mov	r0, r7
 8000b02:	463c      	mov	r4, r7
 8000b04:	46b8      	mov	r8, r7
 8000b06:	46be      	mov	lr, r7
 8000b08:	2620      	movs	r6, #32
 8000b0a:	fbb1 f1f7 	udiv	r1, r1, r7
 8000b0e:	eba2 0208 	sub.w	r2, r2, r8
 8000b12:	ea41 410c 	orr.w	r1, r1, ip, lsl #16
 8000b16:	e766      	b.n	80009e6 <__udivmoddi4+0xfa>
 8000b18:	4601      	mov	r1, r0
 8000b1a:	e718      	b.n	800094e <__udivmoddi4+0x62>
 8000b1c:	4610      	mov	r0, r2
 8000b1e:	e72c      	b.n	800097a <__udivmoddi4+0x8e>
 8000b20:	f1c6 0220 	rsb	r2, r6, #32
 8000b24:	fa2e f302 	lsr.w	r3, lr, r2
 8000b28:	40b7      	lsls	r7, r6
 8000b2a:	40b1      	lsls	r1, r6
 8000b2c:	fa20 f202 	lsr.w	r2, r0, r2
 8000b30:	ea4f 4e17 	mov.w	lr, r7, lsr #16
 8000b34:	430a      	orrs	r2, r1
 8000b36:	fbb3 f8fe 	udiv	r8, r3, lr
 8000b3a:	b2bc      	uxth	r4, r7
 8000b3c:	fb0e 3318 	mls	r3, lr, r8, r3
 8000b40:	0c11      	lsrs	r1, r2, #16
 8000b42:	ea41 4103 	orr.w	r1, r1, r3, lsl #16
 8000b46:	fb08 f904 	mul.w	r9, r8, r4
 8000b4a:	40b0      	lsls	r0, r6
 8000b4c:	4589      	cmp	r9, r1
 8000b4e:	ea4f 4310 	mov.w	r3, r0, lsr #16
 8000b52:	b280      	uxth	r0, r0
 8000b54:	d93e      	bls.n	8000bd4 <__udivmoddi4+0x2e8>
 8000b56:	1879      	adds	r1, r7, r1
 8000b58:	f108 3cff 	add.w	ip, r8, #4294967295
 8000b5c:	d201      	bcs.n	8000b62 <__udivmoddi4+0x276>
 8000b5e:	4589      	cmp	r9, r1
 8000b60:	d81f      	bhi.n	8000ba2 <__udivmoddi4+0x2b6>
 8000b62:	eba1 0109 	sub.w	r1, r1, r9
 8000b66:	fbb1 f9fe 	udiv	r9, r1, lr
 8000b6a:	fb09 f804 	mul.w	r8, r9, r4
 8000b6e:	fb0e 1119 	mls	r1, lr, r9, r1
 8000b72:	b292      	uxth	r2, r2
 8000b74:	ea42 4201 	orr.w	r2, r2, r1, lsl #16
 8000b78:	4542      	cmp	r2, r8
 8000b7a:	d229      	bcs.n	8000bd0 <__udivmoddi4+0x2e4>
 8000b7c:	18ba      	adds	r2, r7, r2
 8000b7e:	f109 31ff 	add.w	r1, r9, #4294967295
 8000b82:	d2c4      	bcs.n	8000b0e <__udivmoddi4+0x222>
 8000b84:	4542      	cmp	r2, r8
 8000b86:	d2c2      	bcs.n	8000b0e <__udivmoddi4+0x222>
 8000b88:	f1a9 0102 	sub.w	r1, r9, #2
 8000b8c:	443a      	add	r2, r7
 8000b8e:	e7be      	b.n	8000b0e <__udivmoddi4+0x222>
 8000b90:	45f0      	cmp	r8, lr
 8000b92:	d29d      	bcs.n	8000ad0 <__udivmoddi4+0x1e4>
 8000b94:	ebbe 0302 	subs.w	r3, lr, r2
 8000b98:	eb6c 0c07 	sbc.w	ip, ip, r7
 8000b9c:	3801      	subs	r0, #1
 8000b9e:	46e1      	mov	r9, ip
 8000ba0:	e796      	b.n	8000ad0 <__udivmoddi4+0x1e4>
 8000ba2:	eba7 0909 	sub.w	r9, r7, r9
 8000ba6:	4449      	add	r1, r9
 8000ba8:	f1a8 0c02 	sub.w	ip, r8, #2
 8000bac:	fbb1 f9fe 	udiv	r9, r1, lr
 8000bb0:	fb09 f804 	mul.w	r8, r9, r4
 8000bb4:	e7db      	b.n	8000b6e <__udivmoddi4+0x282>
 8000bb6:	4673      	mov	r3, lr
 8000bb8:	e77f      	b.n	8000aba <__udivmoddi4+0x1ce>
 8000bba:	4650      	mov	r0, sl
 8000bbc:	e766      	b.n	8000a8c <__udivmoddi4+0x1a0>
 8000bbe:	4608      	mov	r0, r1
 8000bc0:	e6fd      	b.n	80009be <__udivmoddi4+0xd2>
 8000bc2:	443b      	add	r3, r7
 8000bc4:	3a02      	subs	r2, #2
 8000bc6:	e733      	b.n	8000a30 <__udivmoddi4+0x144>
 8000bc8:	f1ac 0c02 	sub.w	ip, ip, #2
 8000bcc:	443b      	add	r3, r7
 8000bce:	e71c      	b.n	8000a0a <__udivmoddi4+0x11e>
 8000bd0:	4649      	mov	r1, r9
 8000bd2:	e79c      	b.n	8000b0e <__udivmoddi4+0x222>
 8000bd4:	eba1 0109 	sub.w	r1, r1, r9
 8000bd8:	46c4      	mov	ip, r8
 8000bda:	fbb1 f9fe 	udiv	r9, r1, lr
 8000bde:	fb09 f804 	mul.w	r8, r9, r4
 8000be2:	e7c4      	b.n	8000b6e <__udivmoddi4+0x282>

08000be4 <__aeabi_idiv0>:
 8000be4:	4770      	bx	lr
 8000be6:	bf00      	nop

08000be8 <read_adc_channel>:
 8000be8:	b51f      	push	{r0, r1, r2, r3, r4, lr}
 8000bea:	2300      	movs	r3, #0
 8000bec:	e9cd 3302 	strd	r3, r3, [sp, #8]
 8000bf0:	9000      	str	r0, [sp, #0]
 8000bf2:	2301      	movs	r3, #1
 8000bf4:	480a      	ldr	r0, [pc, #40]	@ (8000c20 <read_adc_channel+0x38>)
 8000bf6:	9301      	str	r3, [sp, #4]
 8000bf8:	4669      	mov	r1, sp
 8000bfa:	f000 fda3 	bl	8001744 <HAL_ADC_ConfigChannel>
 8000bfe:	b108      	cbz	r0, 8000c04 <read_adc_channel+0x1c>
 8000c00:	b672      	cpsid	i
 8000c02:	e7fe      	b.n	8000c02 <read_adc_channel+0x1a>
 8000c04:	4806      	ldr	r0, [pc, #24]	@ (8000c20 <read_adc_channel+0x38>)
 8000c06:	f000 fcc9 	bl	800159c <HAL_ADC_Start>
 8000c0a:	f04f 31ff 	mov.w	r1, #4294967295
 8000c0e:	4804      	ldr	r0, [pc, #16]	@ (8000c20 <read_adc_channel+0x38>)
 8000c10:	f000 fd42 	bl	8001698 <HAL_ADC_PollForConversion>
 8000c14:	4802      	ldr	r0, [pc, #8]	@ (8000c20 <read_adc_channel+0x38>)
 8000c16:	f000 fd92 	bl	800173e <HAL_ADC_GetValue>
 8000c1a:	b005      	add	sp, #20
 8000c1c:	f85d fb04 	ldr.w	pc, [sp], #4
 8000c20:	20000114 	.word	0x20000114

08000c24 <__io_putchar>:
 8000c24:	b507      	push	{r0, r1, r2, lr}
 8000c26:	f04f 33ff 	mov.w	r3, #4294967295
 8000c2a:	9001      	str	r0, [sp, #4]
 8000c2c:	2201      	movs	r2, #1
 8000c2e:	a901      	add	r1, sp, #4
 8000c30:	4803      	ldr	r0, [pc, #12]	@ (8000c40 <__io_putchar+0x1c>)
 8000c32:	f001 fd44 	bl	80026be <HAL_UART_Transmit>
 8000c36:	9801      	ldr	r0, [sp, #4]
 8000c38:	b003      	add	sp, #12
 8000c3a:	f85d fb04 	ldr.w	pc, [sp], #4
 8000c3e:	bf00      	nop
 8000c40:	20000084 	.word	0x20000084

08000c44 <SystemClock_Config>:
 8000c44:	b510      	push	{r4, lr}
 8000c46:	b094      	sub	sp, #80	@ 0x50
 8000c48:	2214      	movs	r2, #20
 8000c4a:	2100      	movs	r1, #0
 8000c4c:	a808      	add	r0, sp, #32
 8000c4e:	f001 fe9c 	bl	800298a <memset>
 8000c52:	2214      	movs	r2, #20
 8000c54:	2100      	movs	r1, #0
 8000c56:	a802      	add	r0, sp, #8
 8000c58:	f001 fe97 	bl	800298a <memset>
 8000c5c:	4b1f      	ldr	r3, [pc, #124]	@ (8000cdc <SystemClock_Config+0x98>)
 8000c5e:	2200      	movs	r2, #0
 8000c60:	9200      	str	r2, [sp, #0]
 8000c62:	6c19      	ldr	r1, [r3, #64]	@ 0x40
 8000c64:	f041 5180 	orr.w	r1, r1, #268435456	@ 0x10000000
 8000c68:	6419      	str	r1, [r3, #64]	@ 0x40
 8000c6a:	6c1b      	ldr	r3, [r3, #64]	@ 0x40
 8000c6c:	491c      	ldr	r1, [pc, #112]	@ (8000ce0 <SystemClock_Config+0x9c>)
 8000c6e:	f003 5380 	and.w	r3, r3, #268435456	@ 0x10000000
 8000c72:	9300      	str	r3, [sp, #0]
 8000c74:	9b00      	ldr	r3, [sp, #0]
 8000c76:	9201      	str	r2, [sp, #4]
 8000c78:	680b      	ldr	r3, [r1, #0]
 8000c7a:	f423 4340 	bic.w	r3, r3, #49152	@ 0xc000
 8000c7e:	f443 4380 	orr.w	r3, r3, #16384	@ 0x4000
 8000c82:	600b      	str	r3, [r1, #0]
 8000c84:	680b      	ldr	r3, [r1, #0]
 8000c86:	f403 4340 	and.w	r3, r3, #49152	@ 0xc000
 8000c8a:	9301      	str	r3, [sp, #4]
 8000c8c:	9b01      	ldr	r3, [sp, #4]
 8000c8e:	2101      	movs	r1, #1
 8000c90:	2310      	movs	r3, #16
 8000c92:	f44f 70a8 	mov.w	r0, #336	@ 0x150
 8000c96:	e9cd 130a 	strd	r1, r3, [sp, #40]	@ 0x28
 8000c9a:	930f      	str	r3, [sp, #60]	@ 0x3c
 8000c9c:	2304      	movs	r3, #4
 8000c9e:	2402      	movs	r4, #2
 8000ca0:	e9cd 0310 	strd	r0, r3, [sp, #64]	@ 0x40
 8000ca4:	a807      	add	r0, sp, #28
 8000ca6:	e9cd 420d 	strd	r4, r2, [sp, #52]	@ 0x34
 8000caa:	e9cd 4412 	strd	r4, r4, [sp, #72]	@ 0x48
 8000cae:	9407      	str	r4, [sp, #28]
 8000cb0:	f001 f816 	bl	8001ce0 <HAL_RCC_OscConfig>
 8000cb4:	b108      	cbz	r0, 8000cba <SystemClock_Config+0x76>
 8000cb6:	b672      	cpsid	i
 8000cb8:	e7fe      	b.n	8000cb8 <SystemClock_Config+0x74>
 8000cba:	230f      	movs	r3, #15
 8000cbc:	e9cd 3402 	strd	r3, r4, [sp, #8]
 8000cc0:	f44f 5380 	mov.w	r3, #4096	@ 0x1000
 8000cc4:	e9cd 3005 	strd	r3, r0, [sp, #20]
 8000cc8:	9004      	str	r0, [sp, #16]
 8000cca:	4621      	mov	r1, r4
 8000ccc:	a802      	add	r0, sp, #8
 8000cce:	f000 ff05 	bl	8001adc <HAL_RCC_ClockConfig>
 8000cd2:	b108      	cbz	r0, 8000cd8 <SystemClock_Config+0x94>
 8000cd4:	b672      	cpsid	i
 8000cd6:	e7fe      	b.n	8000cd6 <SystemClock_Config+0x92>
 8000cd8:	b014      	add	sp, #80	@ 0x50
 8000cda:	bd10      	pop	{r4, pc}
 8000cdc:	40023800 	.word	0x40023800
 8000ce0:	40007000 	.word	0x40007000
 8000ce4:	00000000 	.word	0x00000000

08000ce8 <main>:
 8000ce8:	e92d 4ff0 	stmdb	sp!, {r4, r5, r6, r7, r8, r9, sl, fp, lr}
 8000cec:	4c7e      	ldr	r4, [pc, #504]	@ (8000ee8 <main+0x200>)
 8000cee:	4f7f      	ldr	r7, [pc, #508]	@ (8000eec <main+0x204>)
 8000cf0:	6823      	ldr	r3, [r4, #0]
 8000cf2:	b099      	sub	sp, #100	@ 0x64
 8000cf4:	f8d3 a02c 	ldr.w	sl, [r3, #44]	@ 0x2c
 8000cf8:	f000 fb6a 	bl	80013d0 <HAL_Init>
 8000cfc:	f7ff ffa2 	bl	8000c44 <SystemClock_Config>
 8000d00:	2214      	movs	r2, #20
 8000d02:	2100      	movs	r1, #0
 8000d04:	a811      	add	r0, sp, #68	@ 0x44
 8000d06:	f001 fe40 	bl	800298a <memset>
 8000d0a:	2600      	movs	r6, #0
 8000d0c:	4b78      	ldr	r3, [pc, #480]	@ (8000ef0 <main+0x208>)
 8000d0e:	960b      	str	r6, [sp, #44]	@ 0x2c
 8000d10:	6b1a      	ldr	r2, [r3, #48]	@ 0x30
 8000d12:	4878      	ldr	r0, [pc, #480]	@ (8000ef4 <main+0x20c>)
 8000d14:	f042 0204 	orr.w	r2, r2, #4
 8000d18:	631a      	str	r2, [r3, #48]	@ 0x30
 8000d1a:	6b1a      	ldr	r2, [r3, #48]	@ 0x30
 8000d1c:	f002 0204 	and.w	r2, r2, #4
 8000d20:	920b      	str	r2, [sp, #44]	@ 0x2c
 8000d22:	9a0b      	ldr	r2, [sp, #44]	@ 0x2c
 8000d24:	960c      	str	r6, [sp, #48]	@ 0x30
 8000d26:	6b1a      	ldr	r2, [r3, #48]	@ 0x30
 8000d28:	f042 0280 	orr.w	r2, r2, #128	@ 0x80
 8000d2c:	631a      	str	r2, [r3, #48]	@ 0x30
 8000d2e:	6b1a      	ldr	r2, [r3, #48]	@ 0x30
 8000d30:	f002 0280 	and.w	r2, r2, #128	@ 0x80
 8000d34:	920c      	str	r2, [sp, #48]	@ 0x30
 8000d36:	9a0c      	ldr	r2, [sp, #48]	@ 0x30
 8000d38:	960d      	str	r6, [sp, #52]	@ 0x34
 8000d3a:	6b1a      	ldr	r2, [r3, #48]	@ 0x30
 8000d3c:	f042 0201 	orr.w	r2, r2, #1
 8000d40:	631a      	str	r2, [r3, #48]	@ 0x30
 8000d42:	6b1a      	ldr	r2, [r3, #48]	@ 0x30
 8000d44:	f002 0201 	and.w	r2, r2, #1
 8000d48:	920d      	str	r2, [sp, #52]	@ 0x34
 8000d4a:	9a0d      	ldr	r2, [sp, #52]	@ 0x34
 8000d4c:	960e      	str	r6, [sp, #56]	@ 0x38
 8000d4e:	6b1a      	ldr	r2, [r3, #48]	@ 0x30
 8000d50:	f042 0202 	orr.w	r2, r2, #2
 8000d54:	631a      	str	r2, [r3, #48]	@ 0x30
 8000d56:	6b1b      	ldr	r3, [r3, #48]	@ 0x30
 8000d58:	f003 0302 	and.w	r3, r3, #2
 8000d5c:	930e      	str	r3, [sp, #56]	@ 0x38
 8000d5e:	4632      	mov	r2, r6
 8000d60:	21c0      	movs	r1, #192	@ 0xc0
 8000d62:	9b0e      	ldr	r3, [sp, #56]	@ 0x38
 8000d64:	f000 feb4 	bl	8001ad0 <HAL_GPIO_WritePin>
 8000d68:	4632      	mov	r2, r6
 8000d6a:	4863      	ldr	r0, [pc, #396]	@ (8000ef8 <main+0x210>)
 8000d6c:	2130      	movs	r1, #48	@ 0x30
 8000d6e:	f000 feaf 	bl	8001ad0 <HAL_GPIO_WritePin>
 8000d72:	f44f 5500 	mov.w	r5, #8192	@ 0x2000
 8000d76:	f44f 1304 	mov.w	r3, #2162688	@ 0x210000
 8000d7a:	4860      	ldr	r0, [pc, #384]	@ (8000efc <main+0x214>)
 8000d7c:	9613      	str	r6, [sp, #76]	@ 0x4c
 8000d7e:	a911      	add	r1, sp, #68	@ 0x44
 8000d80:	e9cd 5311 	strd	r5, r3, [sp, #68]	@ 0x44
 8000d84:	f000 fdd2 	bl	800192c <HAL_GPIO_Init>
 8000d88:	2501      	movs	r5, #1
 8000d8a:	23c0      	movs	r3, #192	@ 0xc0
 8000d8c:	4859      	ldr	r0, [pc, #356]	@ (8000ef4 <main+0x20c>)
 8000d8e:	a911      	add	r1, sp, #68	@ 0x44
 8000d90:	e9cd 3511 	strd	r3, r5, [sp, #68]	@ 0x44
 8000d94:	e9cd 6613 	strd	r6, r6, [sp, #76]	@ 0x4c
 8000d98:	f000 fdc8 	bl	800192c <HAL_GPIO_Init>
 8000d9c:	2330      	movs	r3, #48	@ 0x30
 8000d9e:	a911      	add	r1, sp, #68	@ 0x44
 8000da0:	4855      	ldr	r0, [pc, #340]	@ (8000ef8 <main+0x210>)
 8000da2:	e9cd 3511 	strd	r3, r5, [sp, #68]	@ 0x44
 8000da6:	e9cd 6613 	strd	r6, r6, [sp, #76]	@ 0x4c
 8000daa:	f000 fdbf 	bl	800192c <HAL_GPIO_Init>
 8000dae:	4854      	ldr	r0, [pc, #336]	@ (8000f00 <main+0x218>)
 8000db0:	f44f 33e1 	mov.w	r3, #115200	@ 0x1c200
 8000db4:	e9c0 7300 	strd	r7, r3, [r0]
 8000db8:	270c      	movs	r7, #12
 8000dba:	e9c0 6602 	strd	r6, r6, [r0, #8]
 8000dbe:	e9c0 7605 	strd	r7, r6, [r0, #20]
 8000dc2:	6106      	str	r6, [r0, #16]
 8000dc4:	61c6      	str	r6, [r0, #28]
 8000dc6:	f001 fc4b 	bl	8002660 <HAL_UART_Init>
 8000dca:	4601      	mov	r1, r0
 8000dcc:	b108      	cbz	r0, 8000dd2 <main+0xea>
 8000dce:	b672      	cpsid	i
 8000dd0:	e7fe      	b.n	8000dd0 <main+0xe8>
 8000dd2:	9002      	str	r0, [sp, #8]
 8000dd4:	2210      	movs	r2, #16
 8000dd6:	a811      	add	r0, sp, #68	@ 0x44
 8000dd8:	f001 fdd7 	bl	800298a <memset>
 8000ddc:	f8df b12c 	ldr.w	fp, [pc, #300]	@ 8000f0c <main+0x224>
 8000de0:	4848      	ldr	r0, [pc, #288]	@ (8000f04 <main+0x21c>)
 8000de2:	9902      	ldr	r1, [sp, #8]
 8000de4:	f8cb 1008 	str.w	r1, [fp, #8]
 8000de8:	f44f 3380 	mov.w	r3, #65536	@ 0x10000
 8000dec:	e9cb 0300 	strd	r0, r3, [fp]
 8000df0:	2604      	movs	r6, #4
 8000df2:	4b45      	ldr	r3, [pc, #276]	@ (8000f08 <main+0x220>)
 8000df4:	f8cb 5010 	str.w	r5, [fp, #16]
 8000df8:	4658      	mov	r0, fp
 8000dfa:	f88b 1018 	strb.w	r1, [fp, #24]
 8000dfe:	f88b 1020 	strb.w	r1, [fp, #32]
 8000e02:	f8cb 102c 	str.w	r1, [fp, #44]	@ 0x2c
 8000e06:	f8cb 3028 	str.w	r3, [fp, #40]	@ 0x28
 8000e0a:	f8cb 100c 	str.w	r1, [fp, #12]
 8000e0e:	f8cb 601c 	str.w	r6, [fp, #28]
 8000e12:	f88b 1030 	strb.w	r1, [fp, #48]	@ 0x30
 8000e16:	f8cb 5014 	str.w	r5, [fp, #20]
 8000e1a:	f000 fb19 	bl	8001450 <HAL_ADC_Init>
 8000e1e:	b108      	cbz	r0, 8000e24 <main+0x13c>
 8000e20:	b672      	cpsid	i
 8000e22:	e7fe      	b.n	8000e22 <main+0x13a>
 8000e24:	230a      	movs	r3, #10
 8000e26:	9013      	str	r0, [sp, #76]	@ 0x4c
 8000e28:	a911      	add	r1, sp, #68	@ 0x44
 8000e2a:	4658      	mov	r0, fp
 8000e2c:	e9cd 3511 	strd	r3, r5, [sp, #68]	@ 0x44
 8000e30:	f000 fc88 	bl	8001744 <HAL_ADC_ConfigChannel>
 8000e34:	b108      	cbz	r0, 8000e3a <main+0x152>
 8000e36:	b672      	cpsid	i
 8000e38:	e7fe      	b.n	8000e38 <main+0x150>
 8000e3a:	210b      	movs	r1, #11
 8000e3c:	2302      	movs	r3, #2
 8000e3e:	e9cd 1311 	strd	r1, r3, [sp, #68]	@ 0x44
 8000e42:	4658      	mov	r0, fp
 8000e44:	a911      	add	r1, sp, #68	@ 0x44
 8000e46:	f000 fc7d 	bl	8001744 <HAL_ADC_ConfigChannel>
 8000e4a:	b108      	cbz	r0, 8000e50 <main+0x168>
 8000e4c:	b672      	cpsid	i
 8000e4e:	e7fe      	b.n	8000e4e <main+0x166>
 8000e50:	2303      	movs	r3, #3
 8000e52:	a911      	add	r1, sp, #68	@ 0x44
 8000e54:	4658      	mov	r0, fp
 8000e56:	9711      	str	r7, [sp, #68]	@ 0x44
 8000e58:	9312      	str	r3, [sp, #72]	@ 0x48
 8000e5a:	f000 fc73 	bl	8001744 <HAL_ADC_ConfigChannel>
 8000e5e:	b108      	cbz	r0, 8000e64 <main+0x17c>
 8000e60:	b672      	cpsid	i
 8000e62:	e7fe      	b.n	8000e62 <main+0x17a>
 8000e64:	230d      	movs	r3, #13
 8000e66:	a911      	add	r1, sp, #68	@ 0x44
 8000e68:	4658      	mov	r0, fp
 8000e6a:	e9cd 3611 	strd	r3, r6, [sp, #68]	@ 0x44
 8000e6e:	f000 fc69 	bl	8001744 <HAL_ADC_ConfigChannel>
 8000e72:	4605      	mov	r5, r0
 8000e74:	b108      	cbz	r0, 8000e7a <main+0x192>
 8000e76:	b672      	cpsid	i
 8000e78:	e7fe      	b.n	8000e78 <main+0x190>
 8000e7a:	e9cd 000f 	strd	r0, r0, [sp, #60]	@ 0x3c
 8000e7e:	221c      	movs	r2, #28
 8000e80:	4601      	mov	r1, r0
 8000e82:	a811      	add	r0, sp, #68	@ 0x44
 8000e84:	f001 fd81 	bl	800298a <memset>
 8000e88:	2305      	movs	r3, #5
 8000e8a:	f04f 4280 	mov.w	r2, #1073741824	@ 0x40000000
 8000e8e:	e9c4 2300 	strd	r2, r3, [r4]
 8000e92:	4620      	mov	r0, r4
 8000e94:	f240 336a 	movw	r3, #874	@ 0x36a
 8000e98:	e9c4 3503 	strd	r3, r5, [r4, #12]
 8000e9c:	60a5      	str	r5, [r4, #8]
 8000e9e:	61a5      	str	r5, [r4, #24]
 8000ea0:	f001 f9c0 	bl	8002224 <HAL_TIM_PWM_Init>
 8000ea4:	b108      	cbz	r0, 8000eaa <main+0x1c2>
 8000ea6:	b672      	cpsid	i
 8000ea8:	e7fe      	b.n	8000ea8 <main+0x1c0>
 8000eaa:	e9cd 000f 	strd	r0, r0, [sp, #60]	@ 0x3c
 8000eae:	a90f      	add	r1, sp, #60	@ 0x3c
 8000eb0:	4620      	mov	r0, r4
 8000eb2:	f001 fad9 	bl	8002468 <HAL_TIMEx_MasterConfigSynchronization>
 8000eb6:	4602      	mov	r2, r0
 8000eb8:	b108      	cbz	r0, 8000ebe <main+0x1d6>
 8000eba:	b672      	cpsid	i
 8000ebc:	e7fe      	b.n	8000ebc <main+0x1d4>
 8000ebe:	2360      	movs	r3, #96	@ 0x60
 8000ec0:	e9cd 3011 	strd	r3, r0, [sp, #68]	@ 0x44
 8000ec4:	9013      	str	r0, [sp, #76]	@ 0x4c
 8000ec6:	9015      	str	r0, [sp, #84]	@ 0x54
 8000ec8:	a911      	add	r1, sp, #68	@ 0x44
 8000eca:	4620      	mov	r0, r4
 8000ecc:	f001 fa06 	bl	80022dc <HAL_TIM_PWM_ConfigChannel>
 8000ed0:	b108      	cbz	r0, 8000ed6 <main+0x1ee>
 8000ed2:	b672      	cpsid	i
 8000ed4:	e7fe      	b.n	8000ed4 <main+0x1ec>
 8000ed6:	4632      	mov	r2, r6
 8000ed8:	a911      	add	r1, sp, #68	@ 0x44
 8000eda:	4620      	mov	r0, r4
 8000edc:	f001 f9fe 	bl	80022dc <HAL_TIM_PWM_ConfigChannel>
 8000ee0:	b1b0      	cbz	r0, 8000f10 <main+0x228>
 8000ee2:	b672      	cpsid	i
 8000ee4:	e7fe      	b.n	8000ee4 <main+0x1fc>
 8000ee6:	bf00      	nop
 8000ee8:	200000cc 	.word	0x200000cc
 8000eec:	40004400 	.word	0x40004400
 8000ef0:	40023800 	.word	0x40023800
 8000ef4:	40020000 	.word	0x40020000
 8000ef8:	40020400 	.word	0x40020400
 8000efc:	40020800 	.word	0x40020800
 8000f00:	20000084 	.word	0x20000084
 8000f04:	40012000 	.word	0x40012000
 8000f08:	0f000001 	.word	0x0f000001
 8000f0c:	20000114 	.word	0x20000114
 8000f10:	4650      	mov	r0, sl
 8000f12:	f7ff fc39 	bl	8000788 <__aeabi_ui2d>
 8000f16:	a373      	add	r3, pc, #460	@ (adr r3, 80010e4 <main+0x3fc>)
 8000f18:	e9d3 2300 	ldrd	r2, r3, [r3]
 8000f1c:	4606      	mov	r6, r0
 8000f1e:	460f      	mov	r7, r1
 8000f20:	f7ff f9c6 	bl	80002b0 <__aeabi_dmul>
 8000f24:	4b6c      	ldr	r3, [pc, #432]	@ (80010d8 <main+0x3f0>)
 8000f26:	f8df b1c4 	ldr.w	fp, [pc, #452]	@ 80010ec <main+0x404>
 8000f2a:	f8df a1c4 	ldr.w	sl, [pc, #452]	@ 80010f0 <main+0x408>
 8000f2e:	2200      	movs	r2, #0
 8000f30:	e9cd 0104 	strd	r0, r1, [sp, #16]
 8000f34:	4630      	mov	r0, r6
 8000f36:	4639      	mov	r1, r7
 8000f38:	f7ff f9ba 	bl	80002b0 <__aeabi_dmul>
 8000f3c:	e9cd 0102 	strd	r0, r1, [sp, #8]
 8000f40:	4866      	ldr	r0, [pc, #408]	@ (80010dc <main+0x3f4>)
 8000f42:	f000 f93d 	bl	80011c0 <HAL_TIM_MspPostInit>
 8000f46:	2100      	movs	r1, #0
 8000f48:	4864      	ldr	r0, [pc, #400]	@ (80010dc <main+0x3f4>)
 8000f4a:	f001 fa8b 	bl	8002464 <HAL_TIM_PWM_Start>
 8000f4e:	4863      	ldr	r0, [pc, #396]	@ (80010dc <main+0x3f4>)
 8000f50:	2104      	movs	r1, #4
 8000f52:	f001 fa87 	bl	8002464 <HAL_TIM_PWM_Start>
 8000f56:	200a      	movs	r0, #10
 8000f58:	f7ff fe46 	bl	8000be8 <read_adc_channel>
 8000f5c:	4606      	mov	r6, r0
 8000f5e:	200b      	movs	r0, #11
 8000f60:	f7ff fe42 	bl	8000be8 <read_adc_channel>
 8000f64:	4607      	mov	r7, r0
 8000f66:	200c      	movs	r0, #12
 8000f68:	f7ff fe3e 	bl	8000be8 <read_adc_channel>
 8000f6c:	4605      	mov	r5, r0
 8000f6e:	200d      	movs	r0, #13
 8000f70:	f7ff fe3a 	bl	8000be8 <read_adc_channel>
 8000f74:	1bf3      	subs	r3, r6, r7
 8000f76:	1b46      	subs	r6, r0, r5
 8000f78:	ea83 75e3 	eor.w	r5, r3, r3, asr #31
 8000f7c:	eba5 75e3 	sub.w	r5, r5, r3, asr #31
 8000f80:	2d63      	cmp	r5, #99	@ 0x63
 8000f82:	f340 8087 	ble.w	8001094 <main+0x3ac>
 8000f86:	f5b5 7faa 	cmp.w	r5, #340	@ 0x154
 8000f8a:	dd07      	ble.n	8000f9c <main+0x2b4>
 8000f8c:	e9dd 0104 	ldrd	r0, r1, [sp, #16]
 8000f90:	9309      	str	r3, [sp, #36]	@ 0x24
 8000f92:	f7ff fc73 	bl	800087c <__aeabi_d2uiz>
 8000f96:	6827      	ldr	r7, [r4, #0]
 8000f98:	9b09      	ldr	r3, [sp, #36]	@ 0x24
 8000f9a:	6378      	str	r0, [r7, #52]	@ 0x34
 8000f9c:	2b00      	cmp	r3, #0
 8000f9e:	f44f 77aa 	mov.w	r7, #340	@ 0x154
 8000fa2:	fbb5 f7f7 	udiv	r7, r5, r7
 8000fa6:	dd6e      	ble.n	8001086 <main+0x39e>
 8000fa8:	2201      	movs	r2, #1
 8000faa:	2140      	movs	r1, #64	@ 0x40
 8000fac:	4658      	mov	r0, fp
 8000fae:	f000 fd8f 	bl	8001ad0 <HAL_GPIO_WritePin>
 8000fb2:	2200      	movs	r2, #0
 8000fb4:	2180      	movs	r1, #128	@ 0x80
 8000fb6:	4658      	mov	r0, fp
 8000fb8:	f000 fd8a 	bl	8001ad0 <HAL_GPIO_WritePin>
 8000fbc:	e9dd 2302 	ldrd	r2, r3, [sp, #8]
 8000fc0:	e9dd 0104 	ldrd	r0, r1, [sp, #16]
 8000fc4:	f7ff faa2 	bl	800050c <__aeabi_dsub>
 8000fc8:	e9dd 2302 	ldrd	r2, r3, [sp, #8]
 8000fcc:	f7ff faa0 	bl	8000510 <__adddf3>
 8000fd0:	4680      	mov	r8, r0
 8000fd2:	4638      	mov	r0, r7
 8000fd4:	4689      	mov	r9, r1
 8000fd6:	f7ff fbe7 	bl	80007a8 <__aeabi_i2d>
 8000fda:	4602      	mov	r2, r0
 8000fdc:	460b      	mov	r3, r1
 8000fde:	4640      	mov	r0, r8
 8000fe0:	4649      	mov	r1, r9
 8000fe2:	f7ff f965 	bl	80002b0 <__aeabi_dmul>
 8000fe6:	4680      	mov	r8, r0
 8000fe8:	4689      	mov	r9, r1
 8000fea:	f7ff fc47 	bl	800087c <__aeabi_d2uiz>
 8000fee:	6827      	ldr	r7, [r4, #0]
 8000ff0:	6378      	str	r0, [r7, #52]	@ 0x34
 8000ff2:	ea86 73e6 	eor.w	r3, r6, r6, asr #31
 8000ff6:	eba3 73e6 	sub.w	r3, r3, r6, asr #31
 8000ffa:	2b63      	cmp	r3, #99	@ 0x63
 8000ffc:	dd5b      	ble.n	80010b6 <main+0x3ce>
 8000ffe:	f5b3 7faa 	cmp.w	r3, #340	@ 0x154
 8001002:	dd05      	ble.n	8001010 <main+0x328>
 8001004:	e9dd 0104 	ldrd	r0, r1, [sp, #16]
 8001008:	f7ff fc38 	bl	800087c <__aeabi_d2uiz>
 800100c:	6827      	ldr	r7, [r4, #0]
 800100e:	63b8      	str	r0, [r7, #56]	@ 0x38
 8001010:	2e00      	cmp	r6, #0
 8001012:	f44f 73aa 	mov.w	r3, #340	@ 0x154
 8001016:	fbb5 f5f3 	udiv	r5, r5, r3
 800101a:	dd45      	ble.n	80010a8 <main+0x3c0>
 800101c:	2201      	movs	r2, #1
 800101e:	2110      	movs	r1, #16
 8001020:	4650      	mov	r0, sl
 8001022:	f000 fd55 	bl	8001ad0 <HAL_GPIO_WritePin>
 8001026:	2200      	movs	r2, #0
 8001028:	2120      	movs	r1, #32
 800102a:	4650      	mov	r0, sl
 800102c:	f000 fd50 	bl	8001ad0 <HAL_GPIO_WritePin>
 8001030:	e9dd 2302 	ldrd	r2, r3, [sp, #8]
 8001034:	e9dd 0104 	ldrd	r0, r1, [sp, #16]
 8001038:	f7ff fa68 	bl	800050c <__aeabi_dsub>
 800103c:	e9dd 2302 	ldrd	r2, r3, [sp, #8]
 8001040:	f7ff fa66 	bl	8000510 <__adddf3>
 8001044:	4606      	mov	r6, r0
 8001046:	4628      	mov	r0, r5
 8001048:	460f      	mov	r7, r1
 800104a:	f7ff fbad 	bl	80007a8 <__aeabi_i2d>
 800104e:	4602      	mov	r2, r0
 8001050:	460b      	mov	r3, r1
 8001052:	4630      	mov	r0, r6
 8001054:	4639      	mov	r1, r7
 8001056:	f7ff f92b 	bl	80002b0 <__aeabi_dmul>
 800105a:	4602      	mov	r2, r0
 800105c:	460b      	mov	r3, r1
 800105e:	e9cd 2306 	strd	r2, r3, [sp, #24]
 8001062:	f7ff fc0b 	bl	800087c <__aeabi_d2uiz>
 8001066:	6825      	ldr	r5, [r4, #0]
 8001068:	63a8      	str	r0, [r5, #56]	@ 0x38
 800106a:	ed9d 7b06 	vldr	d7, [sp, #24]
 800106e:	4642      	mov	r2, r8
 8001070:	ed8d 7b00 	vstr	d7, [sp]
 8001074:	464b      	mov	r3, r9
 8001076:	481a      	ldr	r0, [pc, #104]	@ (80010e0 <main+0x3f8>)
 8001078:	f001 fc32 	bl	80028e0 <iprintf>
 800107c:	f44f 707a 	mov.w	r0, #1000	@ 0x3e8
 8001080:	f000 f9d2 	bl	8001428 <HAL_Delay>
 8001084:	e767      	b.n	8000f56 <main+0x26e>
 8001086:	2200      	movs	r2, #0
 8001088:	2140      	movs	r1, #64	@ 0x40
 800108a:	4658      	mov	r0, fp
 800108c:	f000 fd20 	bl	8001ad0 <HAL_GPIO_WritePin>
 8001090:	2201      	movs	r2, #1
 8001092:	e78f      	b.n	8000fb4 <main+0x2cc>
 8001094:	2d4a      	cmp	r5, #74	@ 0x4a
 8001096:	dcac      	bgt.n	8000ff2 <main+0x30a>
 8001098:	6823      	ldr	r3, [r4, #0]
 800109a:	2200      	movs	r2, #0
 800109c:	635a      	str	r2, [r3, #52]	@ 0x34
 800109e:	f04f 0800 	mov.w	r8, #0
 80010a2:	f04f 0900 	mov.w	r9, #0
 80010a6:	e7a4      	b.n	8000ff2 <main+0x30a>
 80010a8:	2200      	movs	r2, #0
 80010aa:	2110      	movs	r1, #16
 80010ac:	4650      	mov	r0, sl
 80010ae:	f000 fd0f 	bl	8001ad0 <HAL_GPIO_WritePin>
 80010b2:	2201      	movs	r2, #1
 80010b4:	e7b8      	b.n	8001028 <main+0x340>
 80010b6:	2b4a      	cmp	r3, #74	@ 0x4a
 80010b8:	dcd7      	bgt.n	800106a <main+0x382>
 80010ba:	ed9f 7b05 	vldr	d7, [pc, #20]	@ 80010d0 <main+0x3e8>
 80010be:	6823      	ldr	r3, [r4, #0]
 80010c0:	2200      	movs	r2, #0
 80010c2:	ed8d 7b06 	vstr	d7, [sp, #24]
 80010c6:	639a      	str	r2, [r3, #56]	@ 0x38
 80010c8:	e7cf      	b.n	800106a <main+0x382>
 80010ca:	bf00      	nop
 80010cc:	f3af 8000 	nop.w
	...
 80010d8:	3fd00000 	.word	0x3fd00000
 80010dc:	200000cc 	.word	0x200000cc
 80010e0:	080035d0 	.word	0x080035d0
 80010e4:	33333333 	.word	0x33333333
 80010e8:	3feb3333 	.word	0x3feb3333
 80010ec:	40020000 	.word	0x40020000
 80010f0:	40020400 	.word	0x40020400

080010f4 <HAL_MspInit>:
 80010f4:	b082      	sub	sp, #8
 80010f6:	4b0d      	ldr	r3, [pc, #52]	@ (800112c <HAL_MspInit+0x38>)
 80010f8:	2100      	movs	r1, #0
 80010fa:	9100      	str	r1, [sp, #0]
 80010fc:	6c5a      	ldr	r2, [r3, #68]	@ 0x44
 80010fe:	f442 4280 	orr.w	r2, r2, #16384	@ 0x4000
 8001102:	645a      	str	r2, [r3, #68]	@ 0x44
 8001104:	6c5a      	ldr	r2, [r3, #68]	@ 0x44
 8001106:	f402 4280 	and.w	r2, r2, #16384	@ 0x4000
 800110a:	9200      	str	r2, [sp, #0]
 800110c:	9a00      	ldr	r2, [sp, #0]
 800110e:	9101      	str	r1, [sp, #4]
 8001110:	6c1a      	ldr	r2, [r3, #64]	@ 0x40
 8001112:	f042 5280 	orr.w	r2, r2, #268435456	@ 0x10000000
 8001116:	641a      	str	r2, [r3, #64]	@ 0x40
 8001118:	6c1b      	ldr	r3, [r3, #64]	@ 0x40
 800111a:	f003 5380 	and.w	r3, r3, #268435456	@ 0x10000000
 800111e:	9301      	str	r3, [sp, #4]
 8001120:	9b01      	ldr	r3, [sp, #4]
 8001122:	2007      	movs	r0, #7
 8001124:	b002      	add	sp, #8
 8001126:	f000 bba9 	b.w	800187c <HAL_NVIC_SetPriorityGrouping>
 800112a:	bf00      	nop
 800112c:	40023800 	.word	0x40023800

08001130 <HAL_ADC_MspInit>:
 8001130:	b510      	push	{r4, lr}
 8001132:	4604      	mov	r4, r0
 8001134:	b088      	sub	sp, #32
 8001136:	2214      	movs	r2, #20
 8001138:	2100      	movs	r1, #0
 800113a:	a803      	add	r0, sp, #12
 800113c:	f001 fc25 	bl	800298a <memset>
 8001140:	6822      	ldr	r2, [r4, #0]
 8001142:	4b12      	ldr	r3, [pc, #72]	@ (800118c <HAL_ADC_MspInit+0x5c>)
 8001144:	429a      	cmp	r2, r3
 8001146:	d11e      	bne.n	8001186 <HAL_ADC_MspInit+0x56>
 8001148:	f503 338c 	add.w	r3, r3, #71680	@ 0x11800
 800114c:	2100      	movs	r1, #0
 800114e:	9101      	str	r1, [sp, #4]
 8001150:	6c5a      	ldr	r2, [r3, #68]	@ 0x44
 8001152:	480f      	ldr	r0, [pc, #60]	@ (8001190 <HAL_ADC_MspInit+0x60>)
 8001154:	f442 7280 	orr.w	r2, r2, #256	@ 0x100
 8001158:	645a      	str	r2, [r3, #68]	@ 0x44
 800115a:	6c5a      	ldr	r2, [r3, #68]	@ 0x44
 800115c:	f402 7280 	and.w	r2, r2, #256	@ 0x100
 8001160:	9201      	str	r2, [sp, #4]
 8001162:	9a01      	ldr	r2, [sp, #4]
 8001164:	9102      	str	r1, [sp, #8]
 8001166:	6b1a      	ldr	r2, [r3, #48]	@ 0x30
 8001168:	f042 0204 	orr.w	r2, r2, #4
 800116c:	631a      	str	r2, [r3, #48]	@ 0x30
 800116e:	6b1b      	ldr	r3, [r3, #48]	@ 0x30
 8001170:	f003 0304 	and.w	r3, r3, #4
 8001174:	9302      	str	r3, [sp, #8]
 8001176:	9b02      	ldr	r3, [sp, #8]
 8001178:	220f      	movs	r2, #15
 800117a:	2303      	movs	r3, #3
 800117c:	a903      	add	r1, sp, #12
 800117e:	e9cd 2303 	strd	r2, r3, [sp, #12]
 8001182:	f000 fbd3 	bl	800192c <HAL_GPIO_Init>
 8001186:	b008      	add	sp, #32
 8001188:	bd10      	pop	{r4, pc}
 800118a:	bf00      	nop
 800118c:	40012000 	.word	0x40012000
 8001190:	40020800 	.word	0x40020800

08001194 <HAL_TIM_PWM_MspInit>:
 8001194:	6803      	ldr	r3, [r0, #0]
 8001196:	f1b3 4f80 	cmp.w	r3, #1073741824	@ 0x40000000
 800119a:	b082      	sub	sp, #8
 800119c:	d10b      	bne.n	80011b6 <HAL_TIM_PWM_MspInit+0x22>
 800119e:	2300      	movs	r3, #0
 80011a0:	9301      	str	r3, [sp, #4]
 80011a2:	4b06      	ldr	r3, [pc, #24]	@ (80011bc <HAL_TIM_PWM_MspInit+0x28>)
 80011a4:	6c1a      	ldr	r2, [r3, #64]	@ 0x40
 80011a6:	f042 0201 	orr.w	r2, r2, #1
 80011aa:	641a      	str	r2, [r3, #64]	@ 0x40
 80011ac:	6c1b      	ldr	r3, [r3, #64]	@ 0x40
 80011ae:	f003 0301 	and.w	r3, r3, #1
 80011b2:	9301      	str	r3, [sp, #4]
 80011b4:	9b01      	ldr	r3, [sp, #4]
 80011b6:	b002      	add	sp, #8
 80011b8:	4770      	bx	lr
 80011ba:	bf00      	nop
 80011bc:	40023800 	.word	0x40023800

080011c0 <HAL_TIM_MspPostInit>:
 80011c0:	b510      	push	{r4, lr}
 80011c2:	4604      	mov	r4, r0
 80011c4:	b086      	sub	sp, #24
 80011c6:	2214      	movs	r2, #20
 80011c8:	2100      	movs	r1, #0
 80011ca:	a801      	add	r0, sp, #4
 80011cc:	f001 fbdd 	bl	800298a <memset>
 80011d0:	6823      	ldr	r3, [r4, #0]
 80011d2:	f1b3 4f80 	cmp.w	r3, #1073741824	@ 0x40000000
 80011d6:	d115      	bne.n	8001204 <HAL_TIM_MspPostInit+0x44>
 80011d8:	2300      	movs	r3, #0
 80011da:	9300      	str	r3, [sp, #0]
 80011dc:	4b0a      	ldr	r3, [pc, #40]	@ (8001208 <HAL_TIM_MspPostInit+0x48>)
 80011de:	480b      	ldr	r0, [pc, #44]	@ (800120c <HAL_TIM_MspPostInit+0x4c>)
 80011e0:	6b1a      	ldr	r2, [r3, #48]	@ 0x30
 80011e2:	f042 0201 	orr.w	r2, r2, #1
 80011e6:	631a      	str	r2, [r3, #48]	@ 0x30
 80011e8:	6b1b      	ldr	r3, [r3, #48]	@ 0x30
 80011ea:	f003 0301 	and.w	r3, r3, #1
 80011ee:	9300      	str	r3, [sp, #0]
 80011f0:	9b00      	ldr	r3, [sp, #0]
 80011f2:	2222      	movs	r2, #34	@ 0x22
 80011f4:	2302      	movs	r3, #2
 80011f6:	e9cd 2301 	strd	r2, r3, [sp, #4]
 80011fa:	a901      	add	r1, sp, #4
 80011fc:	2301      	movs	r3, #1
 80011fe:	9305      	str	r3, [sp, #20]
 8001200:	f000 fb94 	bl	800192c <HAL_GPIO_Init>
 8001204:	b006      	add	sp, #24
 8001206:	bd10      	pop	{r4, pc}
 8001208:	40023800 	.word	0x40023800
 800120c:	40020000 	.word	0x40020000

08001210 <HAL_UART_MspInit>:
 8001210:	b510      	push	{r4, lr}
 8001212:	4604      	mov	r4, r0
 8001214:	b088      	sub	sp, #32
 8001216:	2214      	movs	r2, #20
 8001218:	2100      	movs	r1, #0
 800121a:	a803      	add	r0, sp, #12
 800121c:	f001 fbb5 	bl	800298a <memset>
 8001220:	6822      	ldr	r2, [r4, #0]
 8001222:	4b14      	ldr	r3, [pc, #80]	@ (8001274 <HAL_UART_MspInit+0x64>)
 8001224:	429a      	cmp	r2, r3
 8001226:	d122      	bne.n	800126e <HAL_UART_MspInit+0x5e>
 8001228:	f503 33fa 	add.w	r3, r3, #128000	@ 0x1f400
 800122c:	2100      	movs	r1, #0
 800122e:	9101      	str	r1, [sp, #4]
 8001230:	6c1a      	ldr	r2, [r3, #64]	@ 0x40
 8001232:	4811      	ldr	r0, [pc, #68]	@ (8001278 <HAL_UART_MspInit+0x68>)
 8001234:	f442 3200 	orr.w	r2, r2, #131072	@ 0x20000
 8001238:	641a      	str	r2, [r3, #64]	@ 0x40
 800123a:	6c1a      	ldr	r2, [r3, #64]	@ 0x40
 800123c:	f402 3200 	and.w	r2, r2, #131072	@ 0x20000
 8001240:	9201      	str	r2, [sp, #4]
 8001242:	9a01      	ldr	r2, [sp, #4]
 8001244:	9102      	str	r1, [sp, #8]
 8001246:	6b1a      	ldr	r2, [r3, #48]	@ 0x30
 8001248:	f042 0201 	orr.w	r2, r2, #1
 800124c:	631a      	str	r2, [r3, #48]	@ 0x30
 800124e:	6b1b      	ldr	r3, [r3, #48]	@ 0x30
 8001250:	f003 0301 	and.w	r3, r3, #1
 8001254:	9302      	str	r3, [sp, #8]
 8001256:	9b02      	ldr	r3, [sp, #8]
 8001258:	220c      	movs	r2, #12
 800125a:	2302      	movs	r3, #2
 800125c:	2103      	movs	r1, #3
 800125e:	e9cd 2303 	strd	r2, r3, [sp, #12]
 8001262:	2307      	movs	r3, #7
 8001264:	e9cd 1306 	strd	r1, r3, [sp, #24]
 8001268:	a903      	add	r1, sp, #12
 800126a:	f000 fb5f 	bl	800192c <HAL_GPIO_Init>
 800126e:	b008      	add	sp, #32
 8001270:	bd10      	pop	{r4, pc}
 8001272:	bf00      	nop
 8001274:	40004400 	.word	0x40004400
 8001278:	40020000 	.word	0x40020000

0800127c <NMI_Handler>:
 800127c:	e7fe      	b.n	800127c <NMI_Handler>

0800127e <HardFault_Handler>:
 800127e:	e7fe      	b.n	800127e <HardFault_Handler>

08001280 <MemManage_Handler>:
 8001280:	e7fe      	b.n	8001280 <MemManage_Handler>

08001282 <BusFault_Handler>:
 8001282:	e7fe      	b.n	8001282 <BusFault_Handler>

08001284 <UsageFault_Handler>:
 8001284:	e7fe      	b.n	8001284 <UsageFault_Handler>

08001286 <SVC_Handler>:
 8001286:	4770      	bx	lr

08001288 <DebugMon_Handler>:
 8001288:	4770      	bx	lr

0800128a <PendSV_Handler>:
 800128a:	4770      	bx	lr

0800128c <SysTick_Handler>:
 800128c:	f000 b8ba 	b.w	8001404 <HAL_IncTick>

08001290 <_read>:
 8001290:	b570      	push	{r4, r5, r6, lr}
 8001292:	460d      	mov	r5, r1
 8001294:	4614      	mov	r4, r2
 8001296:	460e      	mov	r6, r1
 8001298:	1b73      	subs	r3, r6, r5
 800129a:	429c      	cmp	r4, r3
 800129c:	dc01      	bgt.n	80012a2 <_read+0x12>
 800129e:	4620      	mov	r0, r4
 80012a0:	bd70      	pop	{r4, r5, r6, pc}
 80012a2:	f3af 8000 	nop.w
 80012a6:	f806 0b01 	strb.w	r0, [r6], #1
 80012aa:	e7f5      	b.n	8001298 <_read+0x8>

080012ac <_write>:
 80012ac:	b570      	push	{r4, r5, r6, lr}
 80012ae:	460d      	mov	r5, r1
 80012b0:	4614      	mov	r4, r2
 80012b2:	460e      	mov	r6, r1
 80012b4:	1b73      	subs	r3, r6, r5
 80012b6:	429c      	cmp	r4, r3
 80012b8:	dc01      	bgt.n	80012be <_write+0x12>
 80012ba:	4620      	mov	r0, r4
 80012bc:	bd70      	pop	{r4, r5, r6, pc}
 80012be:	f816 0b01 	ldrb.w	r0, [r6], #1
 80012c2:	f7ff fcaf 	bl	8000c24 <__io_putchar>
 80012c6:	e7f5      	b.n	80012b4 <_write+0x8>

080012c8 <_close>:
 80012c8:	f04f 30ff 	mov.w	r0, #4294967295
 80012cc:	4770      	bx	lr

080012ce <_fstat>:
 80012ce:	f44f 5300 	mov.w	r3, #8192	@ 0x2000
 80012d2:	604b      	str	r3, [r1, #4]
 80012d4:	2000      	movs	r0, #0
 80012d6:	4770      	bx	lr

080012d8 <_isatty>:
 80012d8:	2001      	movs	r0, #1
 80012da:	4770      	bx	lr

080012dc <_lseek>:
 80012dc:	2000      	movs	r0, #0
 80012de:	4770      	bx	lr

080012e0 <_sbrk>:
 80012e0:	4a0b      	ldr	r2, [pc, #44]	@ (8001310 <_sbrk+0x30>)
 80012e2:	6811      	ldr	r1, [r2, #0]
 80012e4:	b510      	push	{r4, lr}
 80012e6:	4603      	mov	r3, r0
 80012e8:	b909      	cbnz	r1, 80012ee <_sbrk+0xe>
 80012ea:	490a      	ldr	r1, [pc, #40]	@ (8001314 <_sbrk+0x34>)
 80012ec:	6011      	str	r1, [r2, #0]
 80012ee:	6810      	ldr	r0, [r2, #0]
 80012f0:	4909      	ldr	r1, [pc, #36]	@ (8001318 <_sbrk+0x38>)
 80012f2:	4c0a      	ldr	r4, [pc, #40]	@ (800131c <_sbrk+0x3c>)
 80012f4:	4403      	add	r3, r0
 80012f6:	1b09      	subs	r1, r1, r4
 80012f8:	428b      	cmp	r3, r1
 80012fa:	d906      	bls.n	800130a <_sbrk+0x2a>
 80012fc:	f001 fb94 	bl	8002a28 <__errno>
 8001300:	230c      	movs	r3, #12
 8001302:	6003      	str	r3, [r0, #0]
 8001304:	f04f 30ff 	mov.w	r0, #4294967295
 8001308:	bd10      	pop	{r4, pc}
 800130a:	6013      	str	r3, [r2, #0]
 800130c:	e7fc      	b.n	8001308 <_sbrk+0x28>
 800130e:	bf00      	nop
 8001310:	2000015c 	.word	0x2000015c
 8001314:	200002b0 	.word	0x200002b0
 8001318:	20020000 	.word	0x20020000
 800131c:	00000400 	.word	0x00000400

08001320 <SystemInit>:
 8001320:	4a03      	ldr	r2, [pc, #12]	@ (8001330 <SystemInit+0x10>)
 8001322:	f8d2 3088 	ldr.w	r3, [r2, #136]	@ 0x88
 8001326:	f443 0370 	orr.w	r3, r3, #15728640	@ 0xf00000
 800132a:	f8c2 3088 	str.w	r3, [r2, #136]	@ 0x88
 800132e:	4770      	bx	lr
 8001330:	e000ed00 	.word	0xe000ed00

08001334 <Reset_Handler>:
 8001334:	f8df d034 	ldr.w	sp, [pc, #52]	@ 800136c <LoopFillZerobss+0xe>
 8001338:	f7ff fff2 	bl	8001320 <SystemInit>
 800133c:	480c      	ldr	r0, [pc, #48]	@ (8001370 <LoopFillZerobss+0x12>)
 800133e:	490d      	ldr	r1, [pc, #52]	@ (8001374 <LoopFillZerobss+0x16>)
 8001340:	4a0d      	ldr	r2, [pc, #52]	@ (8001378 <LoopFillZerobss+0x1a>)
 8001342:	2300      	movs	r3, #0
 8001344:	e002      	b.n	800134c <LoopCopyDataInit>

08001346 <CopyDataInit>:
 8001346:	58d4      	ldr	r4, [r2, r3]
 8001348:	50c4      	str	r4, [r0, r3]
 800134a:	3304      	adds	r3, #4

0800134c <LoopCopyDataInit>:
 800134c:	18c4      	adds	r4, r0, r3
 800134e:	428c      	cmp	r4, r1
 8001350:	d3f9      	bcc.n	8001346 <CopyDataInit>
 8001352:	4a0a      	ldr	r2, [pc, #40]	@ (800137c <LoopFillZerobss+0x1e>)
 8001354:	4c0a      	ldr	r4, [pc, #40]	@ (8001380 <LoopFillZerobss+0x22>)
 8001356:	2300      	movs	r3, #0
 8001358:	e001      	b.n	800135e <LoopFillZerobss>

0800135a <FillZerobss>:
 800135a:	6013      	str	r3, [r2, #0]
 800135c:	3204      	adds	r2, #4

0800135e <LoopFillZerobss>:
 800135e:	42a2      	cmp	r2, r4
 8001360:	d3fb      	bcc.n	800135a <FillZerobss>
 8001362:	f001 fb67 	bl	8002a34 <__libc_init_array>
 8001366:	f7ff fcbf 	bl	8000ce8 <main>
 800136a:	4770      	bx	lr
 800136c:	20020000 	.word	0x20020000
 8001370:	20000000 	.word	0x20000000
 8001374:	20000068 	.word	0x20000068
 8001378:	0800365c 	.word	0x0800365c
 800137c:	20000068 	.word	0x20000068
 8001380:	200002b0 	.word	0x200002b0

08001384 <ADC_IRQHandler>:
 8001384:	e7fe      	b.n	8001384 <ADC_IRQHandler>
	...

08001388 <HAL_InitTick>:
 8001388:	b538      	push	{r3, r4, r5, lr}
 800138a:	4b0e      	ldr	r3, [pc, #56]	@ (80013c4 <HAL_InitTick+0x3c>)
 800138c:	781a      	ldrb	r2, [r3, #0]
 800138e:	f44f 737a 	mov.w	r3, #1000	@ 0x3e8
 8001392:	fbb3 f3f2 	udiv	r3, r3, r2
 8001396:	4a0c      	ldr	r2, [pc, #48]	@ (80013c8 <HAL_InitTick+0x40>)
 8001398:	4605      	mov	r5, r0
 800139a:	6810      	ldr	r0, [r2, #0]
 800139c:	fbb0 f0f3 	udiv	r0, r0, r3
 80013a0:	f000 fab0 	bl	8001904 <HAL_SYSTICK_Config>
 80013a4:	4604      	mov	r4, r0
 80013a6:	b958      	cbnz	r0, 80013c0 <HAL_InitTick+0x38>
 80013a8:	2d0f      	cmp	r5, #15
 80013aa:	d809      	bhi.n	80013c0 <HAL_InitTick+0x38>
 80013ac:	4602      	mov	r2, r0
 80013ae:	4629      	mov	r1, r5
 80013b0:	f04f 30ff 	mov.w	r0, #4294967295
 80013b4:	f000 fa74 	bl	80018a0 <HAL_NVIC_SetPriority>
 80013b8:	4b04      	ldr	r3, [pc, #16]	@ (80013cc <HAL_InitTick+0x44>)
 80013ba:	4620      	mov	r0, r4
 80013bc:	601d      	str	r5, [r3, #0]
 80013be:	bd38      	pop	{r3, r4, r5, pc}
 80013c0:	2001      	movs	r0, #1
 80013c2:	e7fc      	b.n	80013be <HAL_InitTick+0x36>
 80013c4:	20000004 	.word	0x20000004
 80013c8:	20000000 	.word	0x20000000
 80013cc:	20000008 	.word	0x20000008

080013d0 <HAL_Init>:
 80013d0:	b508      	push	{r3, lr}
 80013d2:	4b0b      	ldr	r3, [pc, #44]	@ (8001400 <HAL_Init+0x30>)
 80013d4:	681a      	ldr	r2, [r3, #0]
 80013d6:	f442 7200 	orr.w	r2, r2, #512	@ 0x200
 80013da:	601a      	str	r2, [r3, #0]
 80013dc:	681a      	ldr	r2, [r3, #0]
 80013de:	f442 6280 	orr.w	r2, r2, #1024	@ 0x400
 80013e2:	601a      	str	r2, [r3, #0]
 80013e4:	681a      	ldr	r2, [r3, #0]
 80013e6:	f442 7280 	orr.w	r2, r2, #256	@ 0x100
 80013ea:	601a      	str	r2, [r3, #0]
 80013ec:	2003      	movs	r0, #3
 80013ee:	f000 fa45 	bl	800187c <HAL_NVIC_SetPriorityGrouping>
 80013f2:	2000      	movs	r0, #0
 80013f4:	f7ff ffc8 	bl	8001388 <HAL_InitTick>
 80013f8:	f7ff fe7c 	bl	80010f4 <HAL_MspInit>
 80013fc:	2000      	movs	r0, #0
 80013fe:	bd08      	pop	{r3, pc}
 8001400:	40023c00 	.word	0x40023c00

08001404 <HAL_IncTick>:
 8001404:	4a03      	ldr	r2, [pc, #12]	@ (8001414 <HAL_IncTick+0x10>)
 8001406:	4b04      	ldr	r3, [pc, #16]	@ (8001418 <HAL_IncTick+0x14>)
 8001408:	6811      	ldr	r1, [r2, #0]
 800140a:	781b      	ldrb	r3, [r3, #0]
 800140c:	440b      	add	r3, r1
 800140e:	6013      	str	r3, [r2, #0]
 8001410:	4770      	bx	lr
 8001412:	bf00      	nop
 8001414:	20000160 	.word	0x20000160
 8001418:	20000004 	.word	0x20000004

0800141c <HAL_GetTick>:
 800141c:	4b01      	ldr	r3, [pc, #4]	@ (8001424 <HAL_GetTick+0x8>)
 800141e:	6818      	ldr	r0, [r3, #0]
 8001420:	4770      	bx	lr
 8001422:	bf00      	nop
 8001424:	20000160 	.word	0x20000160

08001428 <HAL_Delay>:
 8001428:	b538      	push	{r3, r4, r5, lr}
 800142a:	4604      	mov	r4, r0
 800142c:	f7ff fff6 	bl	800141c <HAL_GetTick>
 8001430:	1c63      	adds	r3, r4, #1
 8001432:	bf1c      	itt	ne
 8001434:	4b05      	ldrne	r3, [pc, #20]	@ (800144c <HAL_Delay+0x24>)
 8001436:	781b      	ldrbne	r3, [r3, #0]
 8001438:	4605      	mov	r5, r0
 800143a:	bf18      	it	ne
 800143c:	18e4      	addne	r4, r4, r3
 800143e:	f7ff ffed 	bl	800141c <HAL_GetTick>
 8001442:	1b43      	subs	r3, r0, r5
 8001444:	42a3      	cmp	r3, r4
 8001446:	d3fa      	bcc.n	800143e <HAL_Delay+0x16>
 8001448:	bd38      	pop	{r3, r4, r5, pc}
 800144a:	bf00      	nop
 800144c:	20000004 	.word	0x20000004

08001450 <HAL_ADC_Init>:
 8001450:	b538      	push	{r3, r4, r5, lr}
 8001452:	4604      	mov	r4, r0
 8001454:	2800      	cmp	r0, #0
 8001456:	f000 809b 	beq.w	8001590 <HAL_ADC_Init+0x140>
 800145a:	6c05      	ldr	r5, [r0, #64]	@ 0x40
 800145c:	b925      	cbnz	r5, 8001468 <HAL_ADC_Init+0x18>
 800145e:	f7ff fe67 	bl	8001130 <HAL_ADC_MspInit>
 8001462:	6465      	str	r5, [r4, #68]	@ 0x44
 8001464:	f884 503c 	strb.w	r5, [r4, #60]	@ 0x3c
 8001468:	6c23      	ldr	r3, [r4, #64]	@ 0x40
 800146a:	06db      	lsls	r3, r3, #27
 800146c:	f100 808e 	bmi.w	800158c <HAL_ADC_Init+0x13c>
 8001470:	6c23      	ldr	r3, [r4, #64]	@ 0x40
 8001472:	f423 5388 	bic.w	r3, r3, #4352	@ 0x1100
 8001476:	f023 0302 	bic.w	r3, r3, #2
 800147a:	f043 0302 	orr.w	r3, r3, #2
 800147e:	6423      	str	r3, [r4, #64]	@ 0x40
 8001480:	4b44      	ldr	r3, [pc, #272]	@ (8001594 <HAL_ADC_Init+0x144>)
 8001482:	685a      	ldr	r2, [r3, #4]
 8001484:	f422 3240 	bic.w	r2, r2, #196608	@ 0x30000
 8001488:	605a      	str	r2, [r3, #4]
 800148a:	685a      	ldr	r2, [r3, #4]
 800148c:	6861      	ldr	r1, [r4, #4]
 800148e:	430a      	orrs	r2, r1
 8001490:	605a      	str	r2, [r3, #4]
 8001492:	6823      	ldr	r3, [r4, #0]
 8001494:	6921      	ldr	r1, [r4, #16]
 8001496:	685a      	ldr	r2, [r3, #4]
 8001498:	f422 7280 	bic.w	r2, r2, #256	@ 0x100
 800149c:	605a      	str	r2, [r3, #4]
 800149e:	685a      	ldr	r2, [r3, #4]
 80014a0:	ea42 2201 	orr.w	r2, r2, r1, lsl #8
 80014a4:	605a      	str	r2, [r3, #4]
 80014a6:	685a      	ldr	r2, [r3, #4]
 80014a8:	68a1      	ldr	r1, [r4, #8]
 80014aa:	f022 7240 	bic.w	r2, r2, #50331648	@ 0x3000000
 80014ae:	605a      	str	r2, [r3, #4]
 80014b0:	685a      	ldr	r2, [r3, #4]
 80014b2:	430a      	orrs	r2, r1
 80014b4:	605a      	str	r2, [r3, #4]
 80014b6:	689a      	ldr	r2, [r3, #8]
 80014b8:	68e1      	ldr	r1, [r4, #12]
 80014ba:	f422 6200 	bic.w	r2, r2, #2048	@ 0x800
 80014be:	609a      	str	r2, [r3, #8]
 80014c0:	689a      	ldr	r2, [r3, #8]
 80014c2:	430a      	orrs	r2, r1
 80014c4:	609a      	str	r2, [r3, #8]
 80014c6:	4934      	ldr	r1, [pc, #208]	@ (8001598 <HAL_ADC_Init+0x148>)
 80014c8:	6aa2      	ldr	r2, [r4, #40]	@ 0x28
 80014ca:	428a      	cmp	r2, r1
 80014cc:	d052      	beq.n	8001574 <HAL_ADC_Init+0x124>
 80014ce:	6899      	ldr	r1, [r3, #8]
 80014d0:	f021 6170 	bic.w	r1, r1, #251658240	@ 0xf000000
 80014d4:	6099      	str	r1, [r3, #8]
 80014d6:	6899      	ldr	r1, [r3, #8]
 80014d8:	430a      	orrs	r2, r1
 80014da:	609a      	str	r2, [r3, #8]
 80014dc:	689a      	ldr	r2, [r3, #8]
 80014de:	6ae1      	ldr	r1, [r4, #44]	@ 0x2c
 80014e0:	f022 5240 	bic.w	r2, r2, #805306368	@ 0x30000000
 80014e4:	609a      	str	r2, [r3, #8]
 80014e6:	689a      	ldr	r2, [r3, #8]
 80014e8:	430a      	orrs	r2, r1
 80014ea:	609a      	str	r2, [r3, #8]
 80014ec:	689a      	ldr	r2, [r3, #8]
 80014ee:	f022 0202 	bic.w	r2, r2, #2
 80014f2:	609a      	str	r2, [r3, #8]
 80014f4:	689a      	ldr	r2, [r3, #8]
 80014f6:	7e21      	ldrb	r1, [r4, #24]
 80014f8:	ea42 0241 	orr.w	r2, r2, r1, lsl #1
 80014fc:	609a      	str	r2, [r3, #8]
 80014fe:	f894 2020 	ldrb.w	r2, [r4, #32]
 8001502:	2a00      	cmp	r2, #0
 8001504:	d03e      	beq.n	8001584 <HAL_ADC_Init+0x134>
 8001506:	685a      	ldr	r2, [r3, #4]
 8001508:	6a61      	ldr	r1, [r4, #36]	@ 0x24
 800150a:	f442 6200 	orr.w	r2, r2, #2048	@ 0x800
 800150e:	605a      	str	r2, [r3, #4]
 8001510:	685a      	ldr	r2, [r3, #4]
 8001512:	f422 4260 	bic.w	r2, r2, #57344	@ 0xe000
 8001516:	605a      	str	r2, [r3, #4]
 8001518:	685a      	ldr	r2, [r3, #4]
 800151a:	3901      	subs	r1, #1
 800151c:	ea42 3241 	orr.w	r2, r2, r1, lsl #13
 8001520:	605a      	str	r2, [r3, #4]
 8001522:	6ada      	ldr	r2, [r3, #44]	@ 0x2c
 8001524:	69e1      	ldr	r1, [r4, #28]
 8001526:	f422 0270 	bic.w	r2, r2, #15728640	@ 0xf00000
 800152a:	62da      	str	r2, [r3, #44]	@ 0x2c
 800152c:	6ada      	ldr	r2, [r3, #44]	@ 0x2c
 800152e:	3901      	subs	r1, #1
 8001530:	ea42 5201 	orr.w	r2, r2, r1, lsl #20
 8001534:	62da      	str	r2, [r3, #44]	@ 0x2c
 8001536:	689a      	ldr	r2, [r3, #8]
 8001538:	f422 7200 	bic.w	r2, r2, #512	@ 0x200
 800153c:	609a      	str	r2, [r3, #8]
 800153e:	689a      	ldr	r2, [r3, #8]
 8001540:	f894 1030 	ldrb.w	r1, [r4, #48]	@ 0x30
 8001544:	ea42 2241 	orr.w	r2, r2, r1, lsl #9
 8001548:	609a      	str	r2, [r3, #8]
 800154a:	689a      	ldr	r2, [r3, #8]
 800154c:	6961      	ldr	r1, [r4, #20]
 800154e:	f422 6280 	bic.w	r2, r2, #1024	@ 0x400
 8001552:	609a      	str	r2, [r3, #8]
 8001554:	689a      	ldr	r2, [r3, #8]
 8001556:	2000      	movs	r0, #0
 8001558:	ea42 2281 	orr.w	r2, r2, r1, lsl #10
 800155c:	609a      	str	r2, [r3, #8]
 800155e:	6460      	str	r0, [r4, #68]	@ 0x44
 8001560:	6c23      	ldr	r3, [r4, #64]	@ 0x40
 8001562:	f023 0303 	bic.w	r3, r3, #3
 8001566:	f043 0301 	orr.w	r3, r3, #1
 800156a:	6423      	str	r3, [r4, #64]	@ 0x40
 800156c:	2300      	movs	r3, #0
 800156e:	f884 303c 	strb.w	r3, [r4, #60]	@ 0x3c
 8001572:	bd38      	pop	{r3, r4, r5, pc}
 8001574:	689a      	ldr	r2, [r3, #8]
 8001576:	f022 6270 	bic.w	r2, r2, #251658240	@ 0xf000000
 800157a:	609a      	str	r2, [r3, #8]
 800157c:	689a      	ldr	r2, [r3, #8]
 800157e:	f022 5240 	bic.w	r2, r2, #805306368	@ 0x30000000
 8001582:	e7b2      	b.n	80014ea <HAL_ADC_Init+0x9a>
 8001584:	685a      	ldr	r2, [r3, #4]
 8001586:	f422 6200 	bic.w	r2, r2, #2048	@ 0x800
 800158a:	e7c9      	b.n	8001520 <HAL_ADC_Init+0xd0>
 800158c:	2001      	movs	r0, #1
 800158e:	e7ed      	b.n	800156c <HAL_ADC_Init+0x11c>
 8001590:	2001      	movs	r0, #1
 8001592:	e7ee      	b.n	8001572 <HAL_ADC_Init+0x122>
 8001594:	40012300 	.word	0x40012300
 8001598:	0f000001 	.word	0x0f000001

0800159c <HAL_ADC_Start>:
 800159c:	b082      	sub	sp, #8
 800159e:	2300      	movs	r3, #0
 80015a0:	9301      	str	r3, [sp, #4]
 80015a2:	f890 303c 	ldrb.w	r3, [r0, #60]	@ 0x3c
 80015a6:	2b01      	cmp	r3, #1
 80015a8:	d069      	beq.n	800167e <HAL_ADC_Start+0xe2>
 80015aa:	2301      	movs	r3, #1
 80015ac:	f880 303c 	strb.w	r3, [r0, #60]	@ 0x3c
 80015b0:	6803      	ldr	r3, [r0, #0]
 80015b2:	689a      	ldr	r2, [r3, #8]
 80015b4:	07d2      	lsls	r2, r2, #31
 80015b6:	d50b      	bpl.n	80015d0 <HAL_ADC_Start+0x34>
 80015b8:	689a      	ldr	r2, [r3, #8]
 80015ba:	07d1      	lsls	r1, r2, #31
 80015bc:	d41a      	bmi.n	80015f4 <HAL_ADC_Start+0x58>
 80015be:	6c03      	ldr	r3, [r0, #64]	@ 0x40
 80015c0:	f043 0310 	orr.w	r3, r3, #16
 80015c4:	6403      	str	r3, [r0, #64]	@ 0x40
 80015c6:	6c43      	ldr	r3, [r0, #68]	@ 0x44
 80015c8:	f043 0301 	orr.w	r3, r3, #1
 80015cc:	6443      	str	r3, [r0, #68]	@ 0x44
 80015ce:	e04c      	b.n	800166a <HAL_ADC_Start+0xce>
 80015d0:	689a      	ldr	r2, [r3, #8]
 80015d2:	492c      	ldr	r1, [pc, #176]	@ (8001684 <HAL_ADC_Start+0xe8>)
 80015d4:	f042 0201 	orr.w	r2, r2, #1
 80015d8:	609a      	str	r2, [r3, #8]
 80015da:	4a2b      	ldr	r2, [pc, #172]	@ (8001688 <HAL_ADC_Start+0xec>)
 80015dc:	6812      	ldr	r2, [r2, #0]
 80015de:	fbb2 f2f1 	udiv	r2, r2, r1
 80015e2:	eb02 0242 	add.w	r2, r2, r2, lsl #1
 80015e6:	9201      	str	r2, [sp, #4]
 80015e8:	9a01      	ldr	r2, [sp, #4]
 80015ea:	2a00      	cmp	r2, #0
 80015ec:	d0e4      	beq.n	80015b8 <HAL_ADC_Start+0x1c>
 80015ee:	9a01      	ldr	r2, [sp, #4]
 80015f0:	3a01      	subs	r2, #1
 80015f2:	e7f8      	b.n	80015e6 <HAL_ADC_Start+0x4a>
 80015f4:	6c02      	ldr	r2, [r0, #64]	@ 0x40
 80015f6:	f422 62e0 	bic.w	r2, r2, #1792	@ 0x700
 80015fa:	f022 0201 	bic.w	r2, r2, #1
 80015fe:	f442 7280 	orr.w	r2, r2, #256	@ 0x100
 8001602:	6402      	str	r2, [r0, #64]	@ 0x40
 8001604:	685a      	ldr	r2, [r3, #4]
 8001606:	0552      	lsls	r2, r2, #21
 8001608:	bf41      	itttt	mi
 800160a:	6c02      	ldrmi	r2, [r0, #64]	@ 0x40
 800160c:	f422 5240 	bicmi.w	r2, r2, #12288	@ 0x3000
 8001610:	f442 5280 	orrmi.w	r2, r2, #4096	@ 0x1000
 8001614:	6402      	strmi	r2, [r0, #64]	@ 0x40
 8001616:	6c02      	ldr	r2, [r0, #64]	@ 0x40
 8001618:	f412 5280 	ands.w	r2, r2, #4096	@ 0x1000
 800161c:	bf1c      	itt	ne
 800161e:	6c42      	ldrne	r2, [r0, #68]	@ 0x44
 8001620:	f022 0206 	bicne.w	r2, r2, #6
 8001624:	6442      	str	r2, [r0, #68]	@ 0x44
 8001626:	2200      	movs	r2, #0
 8001628:	f880 203c 	strb.w	r2, [r0, #60]	@ 0x3c
 800162c:	f06f 0222 	mvn.w	r2, #34	@ 0x22
 8001630:	601a      	str	r2, [r3, #0]
 8001632:	4a16      	ldr	r2, [pc, #88]	@ (800168c <HAL_ADC_Start+0xf0>)
 8001634:	6851      	ldr	r1, [r2, #4]
 8001636:	f011 0f1f 	tst.w	r1, #31
 800163a:	4915      	ldr	r1, [pc, #84]	@ (8001690 <HAL_ADC_Start+0xf4>)
 800163c:	d11c      	bne.n	8001678 <HAL_ADC_Start+0xdc>
 800163e:	428b      	cmp	r3, r1
 8001640:	d007      	beq.n	8001652 <HAL_ADC_Start+0xb6>
 8001642:	f501 7180 	add.w	r1, r1, #256	@ 0x100
 8001646:	428b      	cmp	r3, r1
 8001648:	d10c      	bne.n	8001664 <HAL_ADC_Start+0xc8>
 800164a:	6852      	ldr	r2, [r2, #4]
 800164c:	f012 0f1f 	tst.w	r2, #31
 8001650:	d10b      	bne.n	800166a <HAL_ADC_Start+0xce>
 8001652:	689a      	ldr	r2, [r3, #8]
 8001654:	f012 5f40 	tst.w	r2, #805306368	@ 0x30000000
 8001658:	d107      	bne.n	800166a <HAL_ADC_Start+0xce>
 800165a:	689a      	ldr	r2, [r3, #8]
 800165c:	f042 4280 	orr.w	r2, r2, #1073741824	@ 0x40000000
 8001660:	609a      	str	r2, [r3, #8]
 8001662:	e002      	b.n	800166a <HAL_ADC_Start+0xce>
 8001664:	490b      	ldr	r1, [pc, #44]	@ (8001694 <HAL_ADC_Start+0xf8>)
 8001666:	428b      	cmp	r3, r1
 8001668:	d002      	beq.n	8001670 <HAL_ADC_Start+0xd4>
 800166a:	2000      	movs	r0, #0
 800166c:	b002      	add	sp, #8
 800166e:	4770      	bx	lr
 8001670:	6852      	ldr	r2, [r2, #4]
 8001672:	f012 0f10 	tst.w	r2, #16
 8001676:	e7eb      	b.n	8001650 <HAL_ADC_Start+0xb4>
 8001678:	428b      	cmp	r3, r1
 800167a:	d1f6      	bne.n	800166a <HAL_ADC_Start+0xce>
 800167c:	e7e9      	b.n	8001652 <HAL_ADC_Start+0xb6>
 800167e:	2002      	movs	r0, #2
 8001680:	e7f4      	b.n	800166c <HAL_ADC_Start+0xd0>
 8001682:	bf00      	nop
 8001684:	000f4240 	.word	0x000f4240
 8001688:	20000000 	.word	0x20000000
 800168c:	40012300 	.word	0x40012300
 8001690:	40012000 	.word	0x40012000
 8001694:	40012200 	.word	0x40012200

08001698 <HAL_ADC_PollForConversion>:
 8001698:	6803      	ldr	r3, [r0, #0]
 800169a:	689a      	ldr	r2, [r3, #8]
 800169c:	0552      	lsls	r2, r2, #21
 800169e:	b570      	push	{r4, r5, r6, lr}
 80016a0:	4604      	mov	r4, r0
 80016a2:	460d      	mov	r5, r1
 80016a4:	d50b      	bpl.n	80016be <HAL_ADC_PollForConversion+0x26>
 80016a6:	689b      	ldr	r3, [r3, #8]
 80016a8:	05de      	lsls	r6, r3, #23
 80016aa:	d508      	bpl.n	80016be <HAL_ADC_PollForConversion+0x26>
 80016ac:	6c03      	ldr	r3, [r0, #64]	@ 0x40
 80016ae:	f043 0320 	orr.w	r3, r3, #32
 80016b2:	6403      	str	r3, [r0, #64]	@ 0x40
 80016b4:	2300      	movs	r3, #0
 80016b6:	f880 303c 	strb.w	r3, [r0, #60]	@ 0x3c
 80016ba:	2001      	movs	r0, #1
 80016bc:	bd70      	pop	{r4, r5, r6, pc}
 80016be:	f7ff fead 	bl	800141c <HAL_GetTick>
 80016c2:	4606      	mov	r6, r0
 80016c4:	6823      	ldr	r3, [r4, #0]
 80016c6:	681a      	ldr	r2, [r3, #0]
 80016c8:	0791      	lsls	r1, r2, #30
 80016ca:	d50c      	bpl.n	80016e6 <HAL_ADC_PollForConversion+0x4e>
 80016cc:	f06f 0212 	mvn.w	r2, #18
 80016d0:	601a      	str	r2, [r3, #0]
 80016d2:	6c22      	ldr	r2, [r4, #64]	@ 0x40
 80016d4:	f442 7200 	orr.w	r2, r2, #512	@ 0x200
 80016d8:	6422      	str	r2, [r4, #64]	@ 0x40
 80016da:	689a      	ldr	r2, [r3, #8]
 80016dc:	f012 5f40 	tst.w	r2, #805306368	@ 0x30000000
 80016e0:	d017      	beq.n	8001712 <HAL_ADC_PollForConversion+0x7a>
 80016e2:	2000      	movs	r0, #0
 80016e4:	e7ea      	b.n	80016bc <HAL_ADC_PollForConversion+0x24>
 80016e6:	1c68      	adds	r0, r5, #1
 80016e8:	d0ed      	beq.n	80016c6 <HAL_ADC_PollForConversion+0x2e>
 80016ea:	b965      	cbnz	r5, 8001706 <HAL_ADC_PollForConversion+0x6e>
 80016ec:	6823      	ldr	r3, [r4, #0]
 80016ee:	681b      	ldr	r3, [r3, #0]
 80016f0:	f013 0302 	ands.w	r3, r3, #2
 80016f4:	d1e6      	bne.n	80016c4 <HAL_ADC_PollForConversion+0x2c>
 80016f6:	6c22      	ldr	r2, [r4, #64]	@ 0x40
 80016f8:	f884 303c 	strb.w	r3, [r4, #60]	@ 0x3c
 80016fc:	f042 0204 	orr.w	r2, r2, #4
 8001700:	6422      	str	r2, [r4, #64]	@ 0x40
 8001702:	2003      	movs	r0, #3
 8001704:	e7da      	b.n	80016bc <HAL_ADC_PollForConversion+0x24>
 8001706:	f7ff fe89 	bl	800141c <HAL_GetTick>
 800170a:	1b80      	subs	r0, r0, r6
 800170c:	42a8      	cmp	r0, r5
 800170e:	d8ed      	bhi.n	80016ec <HAL_ADC_PollForConversion+0x54>
 8001710:	e7d8      	b.n	80016c4 <HAL_ADC_PollForConversion+0x2c>
 8001712:	7e22      	ldrb	r2, [r4, #24]
 8001714:	2a00      	cmp	r2, #0
 8001716:	d1e4      	bne.n	80016e2 <HAL_ADC_PollForConversion+0x4a>
 8001718:	6ada      	ldr	r2, [r3, #44]	@ 0x2c
 800171a:	f412 0f70 	tst.w	r2, #15728640	@ 0xf00000
 800171e:	d002      	beq.n	8001726 <HAL_ADC_PollForConversion+0x8e>
 8001720:	689b      	ldr	r3, [r3, #8]
 8001722:	055a      	lsls	r2, r3, #21
 8001724:	d4dd      	bmi.n	80016e2 <HAL_ADC_PollForConversion+0x4a>
 8001726:	6c23      	ldr	r3, [r4, #64]	@ 0x40
 8001728:	f423 7380 	bic.w	r3, r3, #256	@ 0x100
 800172c:	6423      	str	r3, [r4, #64]	@ 0x40
 800172e:	6c23      	ldr	r3, [r4, #64]	@ 0x40
 8001730:	04db      	lsls	r3, r3, #19
 8001732:	d4d6      	bmi.n	80016e2 <HAL_ADC_PollForConversion+0x4a>
 8001734:	6c23      	ldr	r3, [r4, #64]	@ 0x40
 8001736:	f043 0301 	orr.w	r3, r3, #1
 800173a:	6423      	str	r3, [r4, #64]	@ 0x40
 800173c:	e7d1      	b.n	80016e2 <HAL_ADC_PollForConversion+0x4a>

0800173e <HAL_ADC_GetValue>:
 800173e:	6803      	ldr	r3, [r0, #0]
 8001740:	6cd8      	ldr	r0, [r3, #76]	@ 0x4c
 8001742:	4770      	bx	lr

08001744 <HAL_ADC_ConfigChannel>:
 8001744:	b5f7      	push	{r0, r1, r2, r4, r5, r6, r7, lr}
 8001746:	2300      	movs	r3, #0
 8001748:	9301      	str	r3, [sp, #4]
 800174a:	f890 303c 	ldrb.w	r3, [r0, #60]	@ 0x3c
 800174e:	2b01      	cmp	r3, #1
 8001750:	4605      	mov	r5, r0
 8001752:	f000 8086 	beq.w	8001862 <HAL_ADC_ConfigChannel+0x11e>
 8001756:	2301      	movs	r3, #1
 8001758:	f880 303c 	strb.w	r3, [r0, #60]	@ 0x3c
 800175c:	6808      	ldr	r0, [r1, #0]
 800175e:	682b      	ldr	r3, [r5, #0]
 8001760:	688e      	ldr	r6, [r1, #8]
 8001762:	2809      	cmp	r0, #9
 8001764:	b284      	uxth	r4, r0
 8001766:	d933      	bls.n	80017d0 <HAL_ADC_ConfigChannel+0x8c>
 8001768:	eb04 0244 	add.w	r2, r4, r4, lsl #1
 800176c:	68df      	ldr	r7, [r3, #12]
 800176e:	3a1e      	subs	r2, #30
 8001770:	f04f 0c07 	mov.w	ip, #7
 8001774:	fa0c fc02 	lsl.w	ip, ip, r2
 8001778:	ea27 070c 	bic.w	r7, r7, ip
 800177c:	60df      	str	r7, [r3, #12]
 800177e:	68df      	ldr	r7, [r3, #12]
 8001780:	fa06 f202 	lsl.w	r2, r6, r2
 8001784:	433a      	orrs	r2, r7
 8001786:	60da      	str	r2, [r3, #12]
 8001788:	6849      	ldr	r1, [r1, #4]
 800178a:	2906      	cmp	r1, #6
 800178c:	eb01 0281 	add.w	r2, r1, r1, lsl #2
 8001790:	d82d      	bhi.n	80017ee <HAL_ADC_ConfigChannel+0xaa>
 8001792:	6b59      	ldr	r1, [r3, #52]	@ 0x34
 8001794:	3a05      	subs	r2, #5
 8001796:	261f      	movs	r6, #31
 8001798:	4096      	lsls	r6, r2
 800179a:	ea21 0106 	bic.w	r1, r1, r6
 800179e:	6359      	str	r1, [r3, #52]	@ 0x34
 80017a0:	6b59      	ldr	r1, [r3, #52]	@ 0x34
 80017a2:	fa04 f202 	lsl.w	r2, r4, r2
 80017a6:	430a      	orrs	r2, r1
 80017a8:	635a      	str	r2, [r3, #52]	@ 0x34
 80017aa:	4a2f      	ldr	r2, [pc, #188]	@ (8001868 <HAL_ADC_ConfigChannel+0x124>)
 80017ac:	4293      	cmp	r3, r2
 80017ae:	d10a      	bne.n	80017c6 <HAL_ADC_ConfigChannel+0x82>
 80017b0:	2812      	cmp	r0, #18
 80017b2:	d137      	bne.n	8001824 <HAL_ADC_ConfigChannel+0xe0>
 80017b4:	4b2d      	ldr	r3, [pc, #180]	@ (800186c <HAL_ADC_ConfigChannel+0x128>)
 80017b6:	685a      	ldr	r2, [r3, #4]
 80017b8:	f422 0200 	bic.w	r2, r2, #8388608	@ 0x800000
 80017bc:	605a      	str	r2, [r3, #4]
 80017be:	685a      	ldr	r2, [r3, #4]
 80017c0:	f442 0280 	orr.w	r2, r2, #4194304	@ 0x400000
 80017c4:	605a      	str	r2, [r3, #4]
 80017c6:	2000      	movs	r0, #0
 80017c8:	f885 003c 	strb.w	r0, [r5, #60]	@ 0x3c
 80017cc:	b003      	add	sp, #12
 80017ce:	bdf0      	pop	{r4, r5, r6, r7, pc}
 80017d0:	691a      	ldr	r2, [r3, #16]
 80017d2:	eb00 0c40 	add.w	ip, r0, r0, lsl #1
 80017d6:	2707      	movs	r7, #7
 80017d8:	fa07 f70c 	lsl.w	r7, r7, ip
 80017dc:	ea22 0207 	bic.w	r2, r2, r7
 80017e0:	611a      	str	r2, [r3, #16]
 80017e2:	691a      	ldr	r2, [r3, #16]
 80017e4:	fa06 f60c 	lsl.w	r6, r6, ip
 80017e8:	4316      	orrs	r6, r2
 80017ea:	611e      	str	r6, [r3, #16]
 80017ec:	e7cc      	b.n	8001788 <HAL_ADC_ConfigChannel+0x44>
 80017ee:	290c      	cmp	r1, #12
 80017f0:	f04f 011f 	mov.w	r1, #31
 80017f4:	d80b      	bhi.n	800180e <HAL_ADC_ConfigChannel+0xca>
 80017f6:	6b1e      	ldr	r6, [r3, #48]	@ 0x30
 80017f8:	3a23      	subs	r2, #35	@ 0x23
 80017fa:	4091      	lsls	r1, r2
 80017fc:	ea26 0101 	bic.w	r1, r6, r1
 8001800:	6319      	str	r1, [r3, #48]	@ 0x30
 8001802:	6b19      	ldr	r1, [r3, #48]	@ 0x30
 8001804:	fa04 f202 	lsl.w	r2, r4, r2
 8001808:	430a      	orrs	r2, r1
 800180a:	631a      	str	r2, [r3, #48]	@ 0x30
 800180c:	e7cd      	b.n	80017aa <HAL_ADC_ConfigChannel+0x66>
 800180e:	6ade      	ldr	r6, [r3, #44]	@ 0x2c
 8001810:	3a41      	subs	r2, #65	@ 0x41
 8001812:	4091      	lsls	r1, r2
 8001814:	ea26 0101 	bic.w	r1, r6, r1
 8001818:	62d9      	str	r1, [r3, #44]	@ 0x2c
 800181a:	6ad9      	ldr	r1, [r3, #44]	@ 0x2c
 800181c:	4094      	lsls	r4, r2
 800181e:	430c      	orrs	r4, r1
 8001820:	62dc      	str	r4, [r3, #44]	@ 0x2c
 8001822:	e7c2      	b.n	80017aa <HAL_ADC_ConfigChannel+0x66>
 8001824:	4b12      	ldr	r3, [pc, #72]	@ (8001870 <HAL_ADC_ConfigChannel+0x12c>)
 8001826:	4298      	cmp	r0, r3
 8001828:	d001      	beq.n	800182e <HAL_ADC_ConfigChannel+0xea>
 800182a:	2811      	cmp	r0, #17
 800182c:	d1cb      	bne.n	80017c6 <HAL_ADC_ConfigChannel+0x82>
 800182e:	4b0f      	ldr	r3, [pc, #60]	@ (800186c <HAL_ADC_ConfigChannel+0x128>)
 8001830:	685a      	ldr	r2, [r3, #4]
 8001832:	f422 0280 	bic.w	r2, r2, #4194304	@ 0x400000
 8001836:	605a      	str	r2, [r3, #4]
 8001838:	685a      	ldr	r2, [r3, #4]
 800183a:	f442 0200 	orr.w	r2, r2, #8388608	@ 0x800000
 800183e:	605a      	str	r2, [r3, #4]
 8001840:	4b0b      	ldr	r3, [pc, #44]	@ (8001870 <HAL_ADC_ConfigChannel+0x12c>)
 8001842:	4298      	cmp	r0, r3
 8001844:	d1bf      	bne.n	80017c6 <HAL_ADC_ConfigChannel+0x82>
 8001846:	4b0b      	ldr	r3, [pc, #44]	@ (8001874 <HAL_ADC_ConfigChannel+0x130>)
 8001848:	4a0b      	ldr	r2, [pc, #44]	@ (8001878 <HAL_ADC_ConfigChannel+0x134>)
 800184a:	681b      	ldr	r3, [r3, #0]
 800184c:	fbb3 f3f2 	udiv	r3, r3, r2
 8001850:	220a      	movs	r2, #10
 8001852:	4353      	muls	r3, r2
 8001854:	9301      	str	r3, [sp, #4]
 8001856:	9b01      	ldr	r3, [sp, #4]
 8001858:	2b00      	cmp	r3, #0
 800185a:	d0b4      	beq.n	80017c6 <HAL_ADC_ConfigChannel+0x82>
 800185c:	9b01      	ldr	r3, [sp, #4]
 800185e:	3b01      	subs	r3, #1
 8001860:	e7f8      	b.n	8001854 <HAL_ADC_ConfigChannel+0x110>
 8001862:	2002      	movs	r0, #2
 8001864:	e7b2      	b.n	80017cc <HAL_ADC_ConfigChannel+0x88>
 8001866:	bf00      	nop
 8001868:	40012000 	.word	0x40012000
 800186c:	40012300 	.word	0x40012300
 8001870:	10000012 	.word	0x10000012
 8001874:	20000000 	.word	0x20000000
 8001878:	000f4240 	.word	0x000f4240

0800187c <HAL_NVIC_SetPriorityGrouping>:
 800187c:	4907      	ldr	r1, [pc, #28]	@ (800189c <HAL_NVIC_SetPriorityGrouping+0x20>)
 800187e:	68ca      	ldr	r2, [r1, #12]
 8001880:	f422 62e0 	bic.w	r2, r2, #1792	@ 0x700
 8001884:	0203      	lsls	r3, r0, #8
 8001886:	0412      	lsls	r2, r2, #16
 8001888:	f403 63e0 	and.w	r3, r3, #1792	@ 0x700
 800188c:	0c12      	lsrs	r2, r2, #16
 800188e:	4313      	orrs	r3, r2
 8001890:	f043 63bf 	orr.w	r3, r3, #100139008	@ 0x5f80000
 8001894:	f443 3300 	orr.w	r3, r3, #131072	@ 0x20000
 8001898:	60cb      	str	r3, [r1, #12]
 800189a:	4770      	bx	lr
 800189c:	e000ed00 	.word	0xe000ed00

080018a0 <HAL_NVIC_SetPriority>:
 80018a0:	4b16      	ldr	r3, [pc, #88]	@ (80018fc <HAL_NVIC_SetPriority+0x5c>)
 80018a2:	b530      	push	{r4, r5, lr}
 80018a4:	68dc      	ldr	r4, [r3, #12]
 80018a6:	f3c4 2402 	ubfx	r4, r4, #8, #3
 80018aa:	f1c4 0307 	rsb	r3, r4, #7
 80018ae:	1d25      	adds	r5, r4, #4
 80018b0:	2b04      	cmp	r3, #4
 80018b2:	bf28      	it	cs
 80018b4:	2304      	movcs	r3, #4
 80018b6:	2d06      	cmp	r5, #6
 80018b8:	f04f 35ff 	mov.w	r5, #4294967295
 80018bc:	bf8c      	ite	hi
 80018be:	3c03      	subhi	r4, #3
 80018c0:	2400      	movls	r4, #0
 80018c2:	fa05 f303 	lsl.w	r3, r5, r3
 80018c6:	ea21 0303 	bic.w	r3, r1, r3
 80018ca:	40a5      	lsls	r5, r4
 80018cc:	ea22 0205 	bic.w	r2, r2, r5
 80018d0:	40a3      	lsls	r3, r4
 80018d2:	2800      	cmp	r0, #0
 80018d4:	ea43 0302 	orr.w	r3, r3, r2
 80018d8:	bfac      	ite	ge
 80018da:	f100 4060 	addge.w	r0, r0, #3758096384	@ 0xe0000000
 80018de:	4a08      	ldrlt	r2, [pc, #32]	@ (8001900 <HAL_NVIC_SetPriority+0x60>)
 80018e0:	ea4f 1303 	mov.w	r3, r3, lsl #4
 80018e4:	bfb8      	it	lt
 80018e6:	f000 000f 	andlt.w	r0, r0, #15
 80018ea:	b2db      	uxtb	r3, r3
 80018ec:	bfaa      	itet	ge
 80018ee:	f500 4061 	addge.w	r0, r0, #57600	@ 0xe100
 80018f2:	5413      	strblt	r3, [r2, r0]
 80018f4:	f880 3300 	strbge.w	r3, [r0, #768]	@ 0x300
 80018f8:	bd30      	pop	{r4, r5, pc}
 80018fa:	bf00      	nop
 80018fc:	e000ed00 	.word	0xe000ed00
 8001900:	e000ed14 	.word	0xe000ed14

08001904 <HAL_SYSTICK_Config>:
 8001904:	3801      	subs	r0, #1
 8001906:	f1b0 7f80 	cmp.w	r0, #16777216	@ 0x1000000
 800190a:	d20b      	bcs.n	8001924 <HAL_SYSTICK_Config+0x20>
 800190c:	f04f 23e0 	mov.w	r3, #3758153728	@ 0xe000e000
 8001910:	4a05      	ldr	r2, [pc, #20]	@ (8001928 <HAL_SYSTICK_Config+0x24>)
 8001912:	6158      	str	r0, [r3, #20]
 8001914:	21f0      	movs	r1, #240	@ 0xf0
 8001916:	f882 1023 	strb.w	r1, [r2, #35]	@ 0x23
 800191a:	2000      	movs	r0, #0
 800191c:	2207      	movs	r2, #7
 800191e:	6198      	str	r0, [r3, #24]
 8001920:	611a      	str	r2, [r3, #16]
 8001922:	4770      	bx	lr
 8001924:	2001      	movs	r0, #1
 8001926:	4770      	bx	lr
 8001928:	e000ed00 	.word	0xe000ed00

0800192c <HAL_GPIO_Init>:
 800192c:	e92d 4ff7 	stmdb	sp!, {r0, r1, r2, r4, r5, r6, r7, r8, r9, sl, fp, lr}
 8001930:	f8df 9198 	ldr.w	r9, [pc, #408]	@ 8001acc <HAL_GPIO_Init+0x1a0>
 8001934:	4a63      	ldr	r2, [pc, #396]	@ (8001ac4 <HAL_GPIO_Init+0x198>)
 8001936:	2300      	movs	r3, #0
 8001938:	680d      	ldr	r5, [r1, #0]
 800193a:	2401      	movs	r4, #1
 800193c:	409c      	lsls	r4, r3
 800193e:	ea04 0605 	and.w	r6, r4, r5
 8001942:	43ac      	bics	r4, r5
 8001944:	f040 80ab 	bne.w	8001a9e <HAL_GPIO_Init+0x172>
 8001948:	684d      	ldr	r5, [r1, #4]
 800194a:	2703      	movs	r7, #3
 800194c:	f005 0403 	and.w	r4, r5, #3
 8001950:	ea4f 0843 	mov.w	r8, r3, lsl #1
 8001954:	fa07 fc08 	lsl.w	ip, r7, r8
 8001958:	1e67      	subs	r7, r4, #1
 800195a:	2f01      	cmp	r7, #1
 800195c:	ea6f 0c0c 	mvn.w	ip, ip
 8001960:	d834      	bhi.n	80019cc <HAL_GPIO_Init+0xa0>
 8001962:	6887      	ldr	r7, [r0, #8]
 8001964:	ea07 0e0c 	and.w	lr, r7, ip
 8001968:	68cf      	ldr	r7, [r1, #12]
 800196a:	fa07 f708 	lsl.w	r7, r7, r8
 800196e:	ea47 070e 	orr.w	r7, r7, lr
 8001972:	6087      	str	r7, [r0, #8]
 8001974:	6847      	ldr	r7, [r0, #4]
 8001976:	ea27 0e06 	bic.w	lr, r7, r6
 800197a:	f3c5 1700 	ubfx	r7, r5, #4, #1
 800197e:	409f      	lsls	r7, r3
 8001980:	ea47 070e 	orr.w	r7, r7, lr
 8001984:	6047      	str	r7, [r0, #4]
 8001986:	68c7      	ldr	r7, [r0, #12]
 8001988:	ea07 0e0c 	and.w	lr, r7, ip
 800198c:	688f      	ldr	r7, [r1, #8]
 800198e:	fa07 f708 	lsl.w	r7, r7, r8
 8001992:	ea47 070e 	orr.w	r7, r7, lr
 8001996:	2c02      	cmp	r4, #2
 8001998:	60c7      	str	r7, [r0, #12]
 800199a:	d119      	bne.n	80019d0 <HAL_GPIO_Init+0xa4>
 800199c:	ea4f 0ad3 	mov.w	sl, r3, lsr #3
 80019a0:	eb00 0a8a 	add.w	sl, r0, sl, lsl #2
 80019a4:	f003 0b07 	and.w	fp, r3, #7
 80019a8:	f8da 7020 	ldr.w	r7, [sl, #32]
 80019ac:	ea4f 0b8b 	mov.w	fp, fp, lsl #2
 80019b0:	f04f 0e0f 	mov.w	lr, #15
 80019b4:	fa0e fe0b 	lsl.w	lr, lr, fp
 80019b8:	ea27 0e0e 	bic.w	lr, r7, lr
 80019bc:	690f      	ldr	r7, [r1, #16]
 80019be:	fa07 f70b 	lsl.w	r7, r7, fp
 80019c2:	ea47 070e 	orr.w	r7, r7, lr
 80019c6:	f8ca 7020 	str.w	r7, [sl, #32]
 80019ca:	e001      	b.n	80019d0 <HAL_GPIO_Init+0xa4>
 80019cc:	2c03      	cmp	r4, #3
 80019ce:	d1da      	bne.n	8001986 <HAL_GPIO_Init+0x5a>
 80019d0:	6807      	ldr	r7, [r0, #0]
 80019d2:	fa04 f408 	lsl.w	r4, r4, r8
 80019d6:	ea07 070c 	and.w	r7, r7, ip
 80019da:	433c      	orrs	r4, r7
 80019dc:	f415 3f40 	tst.w	r5, #196608	@ 0x30000
 80019e0:	6004      	str	r4, [r0, #0]
 80019e2:	d05c      	beq.n	8001a9e <HAL_GPIO_Init+0x172>
 80019e4:	2400      	movs	r4, #0
 80019e6:	9401      	str	r4, [sp, #4]
 80019e8:	f8d9 4044 	ldr.w	r4, [r9, #68]	@ 0x44
 80019ec:	f444 4480 	orr.w	r4, r4, #16384	@ 0x4000
 80019f0:	f8c9 4044 	str.w	r4, [r9, #68]	@ 0x44
 80019f4:	f8d9 4044 	ldr.w	r4, [r9, #68]	@ 0x44
 80019f8:	f023 0703 	bic.w	r7, r3, #3
 80019fc:	f107 4780 	add.w	r7, r7, #1073741824	@ 0x40000000
 8001a00:	f404 4480 	and.w	r4, r4, #16384	@ 0x4000
 8001a04:	f507 379c 	add.w	r7, r7, #79872	@ 0x13800
 8001a08:	9401      	str	r4, [sp, #4]
 8001a0a:	f003 0c03 	and.w	ip, r3, #3
 8001a0e:	9c01      	ldr	r4, [sp, #4]
 8001a10:	f8d7 e008 	ldr.w	lr, [r7, #8]
 8001a14:	ea4f 0c8c 	mov.w	ip, ip, lsl #2
 8001a18:	240f      	movs	r4, #15
 8001a1a:	fa04 f40c 	lsl.w	r4, r4, ip
 8001a1e:	ea2e 0e04 	bic.w	lr, lr, r4
 8001a22:	4c29      	ldr	r4, [pc, #164]	@ (8001ac8 <HAL_GPIO_Init+0x19c>)
 8001a24:	42a0      	cmp	r0, r4
 8001a26:	d041      	beq.n	8001aac <HAL_GPIO_Init+0x180>
 8001a28:	f504 6480 	add.w	r4, r4, #1024	@ 0x400
 8001a2c:	42a0      	cmp	r0, r4
 8001a2e:	d03f      	beq.n	8001ab0 <HAL_GPIO_Init+0x184>
 8001a30:	f504 6480 	add.w	r4, r4, #1024	@ 0x400
 8001a34:	42a0      	cmp	r0, r4
 8001a36:	d03d      	beq.n	8001ab4 <HAL_GPIO_Init+0x188>
 8001a38:	f504 6480 	add.w	r4, r4, #1024	@ 0x400
 8001a3c:	42a0      	cmp	r0, r4
 8001a3e:	d03b      	beq.n	8001ab8 <HAL_GPIO_Init+0x18c>
 8001a40:	f504 6480 	add.w	r4, r4, #1024	@ 0x400
 8001a44:	42a0      	cmp	r0, r4
 8001a46:	d039      	beq.n	8001abc <HAL_GPIO_Init+0x190>
 8001a48:	f504 6480 	add.w	r4, r4, #1024	@ 0x400
 8001a4c:	42a0      	cmp	r0, r4
 8001a4e:	d037      	beq.n	8001ac0 <HAL_GPIO_Init+0x194>
 8001a50:	f504 6480 	add.w	r4, r4, #1024	@ 0x400
 8001a54:	42a0      	cmp	r0, r4
 8001a56:	bf14      	ite	ne
 8001a58:	2407      	movne	r4, #7
 8001a5a:	2406      	moveq	r4, #6
 8001a5c:	fa04 f40c 	lsl.w	r4, r4, ip
 8001a60:	ea44 040e 	orr.w	r4, r4, lr
 8001a64:	60bc      	str	r4, [r7, #8]
 8001a66:	6894      	ldr	r4, [r2, #8]
 8001a68:	43f7      	mvns	r7, r6
 8001a6a:	f415 1f80 	tst.w	r5, #1048576	@ 0x100000
 8001a6e:	bf0c      	ite	eq
 8001a70:	403c      	andeq	r4, r7
 8001a72:	4334      	orrne	r4, r6
 8001a74:	6094      	str	r4, [r2, #8]
 8001a76:	68d4      	ldr	r4, [r2, #12]
 8001a78:	f415 1f00 	tst.w	r5, #2097152	@ 0x200000
 8001a7c:	bf0c      	ite	eq
 8001a7e:	403c      	andeq	r4, r7
 8001a80:	4334      	orrne	r4, r6
 8001a82:	60d4      	str	r4, [r2, #12]
 8001a84:	6854      	ldr	r4, [r2, #4]
 8001a86:	f415 3f00 	tst.w	r5, #131072	@ 0x20000
 8001a8a:	bf0c      	ite	eq
 8001a8c:	403c      	andeq	r4, r7
 8001a8e:	4334      	orrne	r4, r6
 8001a90:	6054      	str	r4, [r2, #4]
 8001a92:	6814      	ldr	r4, [r2, #0]
 8001a94:	03ed      	lsls	r5, r5, #15
 8001a96:	bf54      	ite	pl
 8001a98:	403c      	andpl	r4, r7
 8001a9a:	4334      	orrmi	r4, r6
 8001a9c:	6014      	str	r4, [r2, #0]
 8001a9e:	3301      	adds	r3, #1
 8001aa0:	2b10      	cmp	r3, #16
 8001aa2:	f47f af49 	bne.w	8001938 <HAL_GPIO_Init+0xc>
 8001aa6:	b003      	add	sp, #12
 8001aa8:	e8bd 8ff0 	ldmia.w	sp!, {r4, r5, r6, r7, r8, r9, sl, fp, pc}
 8001aac:	2400      	movs	r4, #0
 8001aae:	e7d5      	b.n	8001a5c <HAL_GPIO_Init+0x130>
 8001ab0:	2401      	movs	r4, #1
 8001ab2:	e7d3      	b.n	8001a5c <HAL_GPIO_Init+0x130>
 8001ab4:	2402      	movs	r4, #2
 8001ab6:	e7d1      	b.n	8001a5c <HAL_GPIO_Init+0x130>
 8001ab8:	2403      	movs	r4, #3
 8001aba:	e7cf      	b.n	8001a5c <HAL_GPIO_Init+0x130>
 8001abc:	2404      	movs	r4, #4
 8001abe:	e7cd      	b.n	8001a5c <HAL_GPIO_Init+0x130>
 8001ac0:	2405      	movs	r4, #5
 8001ac2:	e7cb      	b.n	8001a5c <HAL_GPIO_Init+0x130>
 8001ac4:	40013c00 	.word	0x40013c00
 8001ac8:	40020000 	.word	0x40020000
 8001acc:	40023800 	.word	0x40023800

08001ad0 <HAL_GPIO_WritePin>:
 8001ad0:	b10a      	cbz	r2, 8001ad6 <HAL_GPIO_WritePin+0x6>
 8001ad2:	6181      	str	r1, [r0, #24]
 8001ad4:	4770      	bx	lr
 8001ad6:	0409      	lsls	r1, r1, #16
 8001ad8:	e7fb      	b.n	8001ad2 <HAL_GPIO_WritePin+0x2>
	...

08001adc <HAL_RCC_ClockConfig>:
 8001adc:	e92d 41f0 	stmdb	sp!, {r4, r5, r6, r7, r8, lr}
 8001ae0:	460d      	mov	r5, r1
 8001ae2:	4604      	mov	r4, r0
 8001ae4:	b910      	cbnz	r0, 8001aec <HAL_RCC_ClockConfig+0x10>
 8001ae6:	2001      	movs	r0, #1
 8001ae8:	e8bd 81f0 	ldmia.w	sp!, {r4, r5, r6, r7, r8, pc}
 8001aec:	4b43      	ldr	r3, [pc, #268]	@ (8001bfc <HAL_RCC_ClockConfig+0x120>)
 8001aee:	681a      	ldr	r2, [r3, #0]
 8001af0:	f002 020f 	and.w	r2, r2, #15
 8001af4:	428a      	cmp	r2, r1
 8001af6:	d328      	bcc.n	8001b4a <HAL_RCC_ClockConfig+0x6e>
 8001af8:	6821      	ldr	r1, [r4, #0]
 8001afa:	078f      	lsls	r7, r1, #30
 8001afc:	d42d      	bmi.n	8001b5a <HAL_RCC_ClockConfig+0x7e>
 8001afe:	07c8      	lsls	r0, r1, #31
 8001b00:	d440      	bmi.n	8001b84 <HAL_RCC_ClockConfig+0xa8>
 8001b02:	4b3e      	ldr	r3, [pc, #248]	@ (8001bfc <HAL_RCC_ClockConfig+0x120>)
 8001b04:	681a      	ldr	r2, [r3, #0]
 8001b06:	f002 020f 	and.w	r2, r2, #15
 8001b0a:	42aa      	cmp	r2, r5
 8001b0c:	d865      	bhi.n	8001bda <HAL_RCC_ClockConfig+0xfe>
 8001b0e:	6822      	ldr	r2, [r4, #0]
 8001b10:	0751      	lsls	r1, r2, #29
 8001b12:	d46b      	bmi.n	8001bec <HAL_RCC_ClockConfig+0x110>
 8001b14:	0713      	lsls	r3, r2, #28
 8001b16:	d507      	bpl.n	8001b28 <HAL_RCC_ClockConfig+0x4c>
 8001b18:	4a39      	ldr	r2, [pc, #228]	@ (8001c00 <HAL_RCC_ClockConfig+0x124>)
 8001b1a:	6921      	ldr	r1, [r4, #16]
 8001b1c:	6893      	ldr	r3, [r2, #8]
 8001b1e:	f423 4360 	bic.w	r3, r3, #57344	@ 0xe000
 8001b22:	ea43 03c1 	orr.w	r3, r3, r1, lsl #3
 8001b26:	6093      	str	r3, [r2, #8]
 8001b28:	f000 f892 	bl	8001c50 <HAL_RCC_GetSysClockFreq>
 8001b2c:	4b34      	ldr	r3, [pc, #208]	@ (8001c00 <HAL_RCC_ClockConfig+0x124>)
 8001b2e:	4a35      	ldr	r2, [pc, #212]	@ (8001c04 <HAL_RCC_ClockConfig+0x128>)
 8001b30:	689b      	ldr	r3, [r3, #8]
 8001b32:	f3c3 1303 	ubfx	r3, r3, #4, #4
 8001b36:	5cd3      	ldrb	r3, [r2, r3]
 8001b38:	40d8      	lsrs	r0, r3
 8001b3a:	4b33      	ldr	r3, [pc, #204]	@ (8001c08 <HAL_RCC_ClockConfig+0x12c>)
 8001b3c:	6018      	str	r0, [r3, #0]
 8001b3e:	4b33      	ldr	r3, [pc, #204]	@ (8001c0c <HAL_RCC_ClockConfig+0x130>)
 8001b40:	6818      	ldr	r0, [r3, #0]
 8001b42:	f7ff fc21 	bl	8001388 <HAL_InitTick>
 8001b46:	2000      	movs	r0, #0
 8001b48:	e7ce      	b.n	8001ae8 <HAL_RCC_ClockConfig+0xc>
 8001b4a:	b2ca      	uxtb	r2, r1
 8001b4c:	701a      	strb	r2, [r3, #0]
 8001b4e:	681b      	ldr	r3, [r3, #0]
 8001b50:	f003 030f 	and.w	r3, r3, #15
 8001b54:	428b      	cmp	r3, r1
 8001b56:	d1c6      	bne.n	8001ae6 <HAL_RCC_ClockConfig+0xa>
 8001b58:	e7ce      	b.n	8001af8 <HAL_RCC_ClockConfig+0x1c>
 8001b5a:	4b29      	ldr	r3, [pc, #164]	@ (8001c00 <HAL_RCC_ClockConfig+0x124>)
 8001b5c:	f011 0f04 	tst.w	r1, #4
 8001b60:	bf1e      	ittt	ne
 8001b62:	689a      	ldrne	r2, [r3, #8]
 8001b64:	f442 52e0 	orrne.w	r2, r2, #7168	@ 0x1c00
 8001b68:	609a      	strne	r2, [r3, #8]
 8001b6a:	070e      	lsls	r6, r1, #28
 8001b6c:	bf42      	ittt	mi
 8001b6e:	689a      	ldrmi	r2, [r3, #8]
 8001b70:	f442 4260 	orrmi.w	r2, r2, #57344	@ 0xe000
 8001b74:	609a      	strmi	r2, [r3, #8]
 8001b76:	689a      	ldr	r2, [r3, #8]
 8001b78:	68a0      	ldr	r0, [r4, #8]
 8001b7a:	f022 02f0 	bic.w	r2, r2, #240	@ 0xf0
 8001b7e:	4302      	orrs	r2, r0
 8001b80:	609a      	str	r2, [r3, #8]
 8001b82:	e7bc      	b.n	8001afe <HAL_RCC_ClockConfig+0x22>
 8001b84:	6862      	ldr	r2, [r4, #4]
 8001b86:	4b1e      	ldr	r3, [pc, #120]	@ (8001c00 <HAL_RCC_ClockConfig+0x124>)
 8001b88:	2a01      	cmp	r2, #1
 8001b8a:	d11c      	bne.n	8001bc6 <HAL_RCC_ClockConfig+0xea>
 8001b8c:	681b      	ldr	r3, [r3, #0]
 8001b8e:	f413 3f00 	tst.w	r3, #131072	@ 0x20000
 8001b92:	d0a8      	beq.n	8001ae6 <HAL_RCC_ClockConfig+0xa>
 8001b94:	4e1a      	ldr	r6, [pc, #104]	@ (8001c00 <HAL_RCC_ClockConfig+0x124>)
 8001b96:	68b3      	ldr	r3, [r6, #8]
 8001b98:	f023 0303 	bic.w	r3, r3, #3
 8001b9c:	4313      	orrs	r3, r2
 8001b9e:	60b3      	str	r3, [r6, #8]
 8001ba0:	f7ff fc3c 	bl	800141c <HAL_GetTick>
 8001ba4:	f241 3888 	movw	r8, #5000	@ 0x1388
 8001ba8:	4607      	mov	r7, r0
 8001baa:	68b3      	ldr	r3, [r6, #8]
 8001bac:	6862      	ldr	r2, [r4, #4]
 8001bae:	f003 030c 	and.w	r3, r3, #12
 8001bb2:	ebb3 0f82 	cmp.w	r3, r2, lsl #2
 8001bb6:	d0a4      	beq.n	8001b02 <HAL_RCC_ClockConfig+0x26>
 8001bb8:	f7ff fc30 	bl	800141c <HAL_GetTick>
 8001bbc:	1bc0      	subs	r0, r0, r7
 8001bbe:	4540      	cmp	r0, r8
 8001bc0:	d9f3      	bls.n	8001baa <HAL_RCC_ClockConfig+0xce>
 8001bc2:	2003      	movs	r0, #3
 8001bc4:	e790      	b.n	8001ae8 <HAL_RCC_ClockConfig+0xc>
 8001bc6:	1e91      	subs	r1, r2, #2
 8001bc8:	2901      	cmp	r1, #1
 8001bca:	681b      	ldr	r3, [r3, #0]
 8001bcc:	d802      	bhi.n	8001bd4 <HAL_RCC_ClockConfig+0xf8>
 8001bce:	f013 7f00 	tst.w	r3, #33554432	@ 0x2000000
 8001bd2:	e7de      	b.n	8001b92 <HAL_RCC_ClockConfig+0xb6>
 8001bd4:	f013 0f02 	tst.w	r3, #2
 8001bd8:	e7db      	b.n	8001b92 <HAL_RCC_ClockConfig+0xb6>
 8001bda:	b2ea      	uxtb	r2, r5
 8001bdc:	701a      	strb	r2, [r3, #0]
 8001bde:	681b      	ldr	r3, [r3, #0]
 8001be0:	f003 030f 	and.w	r3, r3, #15
 8001be4:	42ab      	cmp	r3, r5
 8001be6:	f47f af7e 	bne.w	8001ae6 <HAL_RCC_ClockConfig+0xa>
 8001bea:	e790      	b.n	8001b0e <HAL_RCC_ClockConfig+0x32>
 8001bec:	4904      	ldr	r1, [pc, #16]	@ (8001c00 <HAL_RCC_ClockConfig+0x124>)
 8001bee:	68e0      	ldr	r0, [r4, #12]
 8001bf0:	688b      	ldr	r3, [r1, #8]
 8001bf2:	f423 53e0 	bic.w	r3, r3, #7168	@ 0x1c00
 8001bf6:	4303      	orrs	r3, r0
 8001bf8:	608b      	str	r3, [r1, #8]
 8001bfa:	e78b      	b.n	8001b14 <HAL_RCC_ClockConfig+0x38>
 8001bfc:	40023c00 	.word	0x40023c00
 8001c00:	40023800 	.word	0x40023800
 8001c04:	0800363c 	.word	0x0800363c
 8001c08:	20000000 	.word	0x20000000
 8001c0c:	20000008 	.word	0x20000008

08001c10 <HAL_RCC_GetPCLK1Freq>:
 8001c10:	4b04      	ldr	r3, [pc, #16]	@ (8001c24 <HAL_RCC_GetPCLK1Freq+0x14>)
 8001c12:	4a05      	ldr	r2, [pc, #20]	@ (8001c28 <HAL_RCC_GetPCLK1Freq+0x18>)
 8001c14:	689b      	ldr	r3, [r3, #8]
 8001c16:	f3c3 2382 	ubfx	r3, r3, #10, #3
 8001c1a:	5cd3      	ldrb	r3, [r2, r3]
 8001c1c:	4a03      	ldr	r2, [pc, #12]	@ (8001c2c <HAL_RCC_GetPCLK1Freq+0x1c>)
 8001c1e:	6810      	ldr	r0, [r2, #0]
 8001c20:	40d8      	lsrs	r0, r3
 8001c22:	4770      	bx	lr
 8001c24:	40023800 	.word	0x40023800
 8001c28:	08003634 	.word	0x08003634
 8001c2c:	20000000 	.word	0x20000000

08001c30 <HAL_RCC_GetPCLK2Freq>:
 8001c30:	4b04      	ldr	r3, [pc, #16]	@ (8001c44 <HAL_RCC_GetPCLK2Freq+0x14>)
 8001c32:	4a05      	ldr	r2, [pc, #20]	@ (8001c48 <HAL_RCC_GetPCLK2Freq+0x18>)
 8001c34:	689b      	ldr	r3, [r3, #8]
 8001c36:	f3c3 3342 	ubfx	r3, r3, #13, #3
 8001c3a:	5cd3      	ldrb	r3, [r2, r3]
 8001c3c:	4a03      	ldr	r2, [pc, #12]	@ (8001c4c <HAL_RCC_GetPCLK2Freq+0x1c>)
 8001c3e:	6810      	ldr	r0, [r2, #0]
 8001c40:	40d8      	lsrs	r0, r3
 8001c42:	4770      	bx	lr
 8001c44:	40023800 	.word	0x40023800
 8001c48:	08003634 	.word	0x08003634
 8001c4c:	20000000 	.word	0x20000000

08001c50 <HAL_RCC_GetSysClockFreq>:
 8001c50:	4920      	ldr	r1, [pc, #128]	@ (8001cd4 <HAL_RCC_GetSysClockFreq+0x84>)
 8001c52:	b508      	push	{r3, lr}
 8001c54:	688b      	ldr	r3, [r1, #8]
 8001c56:	f003 030c 	and.w	r3, r3, #12
 8001c5a:	2b08      	cmp	r3, #8
 8001c5c:	d007      	beq.n	8001c6e <HAL_RCC_GetSysClockFreq+0x1e>
 8001c5e:	2b0c      	cmp	r3, #12
 8001c60:	d020      	beq.n	8001ca4 <HAL_RCC_GetSysClockFreq+0x54>
 8001c62:	481d      	ldr	r0, [pc, #116]	@ (8001cd8 <HAL_RCC_GetSysClockFreq+0x88>)
 8001c64:	4a1d      	ldr	r2, [pc, #116]	@ (8001cdc <HAL_RCC_GetSysClockFreq+0x8c>)
 8001c66:	2b04      	cmp	r3, #4
 8001c68:	bf18      	it	ne
 8001c6a:	4610      	movne	r0, r2
 8001c6c:	bd08      	pop	{r3, pc}
 8001c6e:	684a      	ldr	r2, [r1, #4]
 8001c70:	684b      	ldr	r3, [r1, #4]
 8001c72:	6849      	ldr	r1, [r1, #4]
 8001c74:	f413 0380 	ands.w	r3, r3, #4194304	@ 0x400000
 8001c78:	bf14      	ite	ne
 8001c7a:	4817      	ldrne	r0, [pc, #92]	@ (8001cd8 <HAL_RCC_GetSysClockFreq+0x88>)
 8001c7c:	4817      	ldreq	r0, [pc, #92]	@ (8001cdc <HAL_RCC_GetSysClockFreq+0x8c>)
 8001c7e:	f3c1 1188 	ubfx	r1, r1, #6, #9
 8001c82:	bf18      	it	ne
 8001c84:	2300      	movne	r3, #0
 8001c86:	f002 023f 	and.w	r2, r2, #63	@ 0x3f
 8001c8a:	fba1 0100 	umull	r0, r1, r1, r0
 8001c8e:	f7fe fe15 	bl	80008bc <__aeabi_uldivmod>
 8001c92:	4b10      	ldr	r3, [pc, #64]	@ (8001cd4 <HAL_RCC_GetSysClockFreq+0x84>)
 8001c94:	685b      	ldr	r3, [r3, #4]
 8001c96:	f3c3 4301 	ubfx	r3, r3, #16, #2
 8001c9a:	3301      	adds	r3, #1
 8001c9c:	005b      	lsls	r3, r3, #1
 8001c9e:	fbb0 f0f3 	udiv	r0, r0, r3
 8001ca2:	e7e3      	b.n	8001c6c <HAL_RCC_GetSysClockFreq+0x1c>
 8001ca4:	684a      	ldr	r2, [r1, #4]
 8001ca6:	684b      	ldr	r3, [r1, #4]
 8001ca8:	6849      	ldr	r1, [r1, #4]
 8001caa:	f413 0380 	ands.w	r3, r3, #4194304	@ 0x400000
 8001cae:	bf14      	ite	ne
 8001cb0:	4809      	ldrne	r0, [pc, #36]	@ (8001cd8 <HAL_RCC_GetSysClockFreq+0x88>)
 8001cb2:	480a      	ldreq	r0, [pc, #40]	@ (8001cdc <HAL_RCC_GetSysClockFreq+0x8c>)
 8001cb4:	f3c1 1188 	ubfx	r1, r1, #6, #9
 8001cb8:	bf18      	it	ne
 8001cba:	2300      	movne	r3, #0
 8001cbc:	f002 023f 	and.w	r2, r2, #63	@ 0x3f
 8001cc0:	fba1 0100 	umull	r0, r1, r1, r0
 8001cc4:	f7fe fdfa 	bl	80008bc <__aeabi_uldivmod>
 8001cc8:	4b02      	ldr	r3, [pc, #8]	@ (8001cd4 <HAL_RCC_GetSysClockFreq+0x84>)
 8001cca:	685b      	ldr	r3, [r3, #4]
 8001ccc:	f3c3 7302 	ubfx	r3, r3, #28, #3
 8001cd0:	e7e5      	b.n	8001c9e <HAL_RCC_GetSysClockFreq+0x4e>
 8001cd2:	bf00      	nop
 8001cd4:	40023800 	.word	0x40023800
 8001cd8:	007a1200 	.word	0x007a1200
 8001cdc:	00f42400 	.word	0x00f42400

08001ce0 <HAL_RCC_OscConfig>:
 8001ce0:	e92d 41f3 	stmdb	sp!, {r0, r1, r4, r5, r6, r7, r8, lr}
 8001ce4:	4604      	mov	r4, r0
 8001ce6:	2800      	cmp	r0, #0
 8001ce8:	d031      	beq.n	8001d4e <HAL_RCC_OscConfig+0x6e>
 8001cea:	6803      	ldr	r3, [r0, #0]
 8001cec:	07df      	lsls	r7, r3, #31
 8001cee:	d410      	bmi.n	8001d12 <HAL_RCC_OscConfig+0x32>
 8001cf0:	6823      	ldr	r3, [r4, #0]
 8001cf2:	079e      	lsls	r6, r3, #30
 8001cf4:	d467      	bmi.n	8001dc6 <HAL_RCC_OscConfig+0xe6>
 8001cf6:	6823      	ldr	r3, [r4, #0]
 8001cf8:	0719      	lsls	r1, r3, #28
 8001cfa:	f100 80b2 	bmi.w	8001e62 <HAL_RCC_OscConfig+0x182>
 8001cfe:	6823      	ldr	r3, [r4, #0]
 8001d00:	075a      	lsls	r2, r3, #29
 8001d02:	f100 80d2 	bmi.w	8001eaa <HAL_RCC_OscConfig+0x1ca>
 8001d06:	69a3      	ldr	r3, [r4, #24]
 8001d08:	2b00      	cmp	r3, #0
 8001d0a:	f040 8139 	bne.w	8001f80 <HAL_RCC_OscConfig+0x2a0>
 8001d0e:	2000      	movs	r0, #0
 8001d10:	e034      	b.n	8001d7c <HAL_RCC_OscConfig+0x9c>
 8001d12:	4b98      	ldr	r3, [pc, #608]	@ (8001f74 <HAL_RCC_OscConfig+0x294>)
 8001d14:	689a      	ldr	r2, [r3, #8]
 8001d16:	f002 020c 	and.w	r2, r2, #12
 8001d1a:	2a04      	cmp	r2, #4
 8001d1c:	d010      	beq.n	8001d40 <HAL_RCC_OscConfig+0x60>
 8001d1e:	689a      	ldr	r2, [r3, #8]
 8001d20:	f002 020c 	and.w	r2, r2, #12
 8001d24:	2a08      	cmp	r2, #8
 8001d26:	d102      	bne.n	8001d2e <HAL_RCC_OscConfig+0x4e>
 8001d28:	685b      	ldr	r3, [r3, #4]
 8001d2a:	025d      	lsls	r5, r3, #9
 8001d2c:	d408      	bmi.n	8001d40 <HAL_RCC_OscConfig+0x60>
 8001d2e:	4b91      	ldr	r3, [pc, #580]	@ (8001f74 <HAL_RCC_OscConfig+0x294>)
 8001d30:	689a      	ldr	r2, [r3, #8]
 8001d32:	f002 020c 	and.w	r2, r2, #12
 8001d36:	2a0c      	cmp	r2, #12
 8001d38:	d10b      	bne.n	8001d52 <HAL_RCC_OscConfig+0x72>
 8001d3a:	685a      	ldr	r2, [r3, #4]
 8001d3c:	0251      	lsls	r1, r2, #9
 8001d3e:	d508      	bpl.n	8001d52 <HAL_RCC_OscConfig+0x72>
 8001d40:	4b8c      	ldr	r3, [pc, #560]	@ (8001f74 <HAL_RCC_OscConfig+0x294>)
 8001d42:	681b      	ldr	r3, [r3, #0]
 8001d44:	039a      	lsls	r2, r3, #14
 8001d46:	d5d3      	bpl.n	8001cf0 <HAL_RCC_OscConfig+0x10>
 8001d48:	6863      	ldr	r3, [r4, #4]
 8001d4a:	2b00      	cmp	r3, #0
 8001d4c:	d1d0      	bne.n	8001cf0 <HAL_RCC_OscConfig+0x10>
 8001d4e:	2001      	movs	r0, #1
 8001d50:	e014      	b.n	8001d7c <HAL_RCC_OscConfig+0x9c>
 8001d52:	6862      	ldr	r2, [r4, #4]
 8001d54:	f5b2 3f80 	cmp.w	r2, #65536	@ 0x10000
 8001d58:	d113      	bne.n	8001d82 <HAL_RCC_OscConfig+0xa2>
 8001d5a:	681a      	ldr	r2, [r3, #0]
 8001d5c:	f442 3280 	orr.w	r2, r2, #65536	@ 0x10000
 8001d60:	601a      	str	r2, [r3, #0]
 8001d62:	f7ff fb5b 	bl	800141c <HAL_GetTick>
 8001d66:	4e83      	ldr	r6, [pc, #524]	@ (8001f74 <HAL_RCC_OscConfig+0x294>)
 8001d68:	4605      	mov	r5, r0
 8001d6a:	6833      	ldr	r3, [r6, #0]
 8001d6c:	039b      	lsls	r3, r3, #14
 8001d6e:	d4bf      	bmi.n	8001cf0 <HAL_RCC_OscConfig+0x10>
 8001d70:	f7ff fb54 	bl	800141c <HAL_GetTick>
 8001d74:	1b40      	subs	r0, r0, r5
 8001d76:	2864      	cmp	r0, #100	@ 0x64
 8001d78:	d9f7      	bls.n	8001d6a <HAL_RCC_OscConfig+0x8a>
 8001d7a:	2003      	movs	r0, #3
 8001d7c:	b002      	add	sp, #8
 8001d7e:	e8bd 81f0 	ldmia.w	sp!, {r4, r5, r6, r7, r8, pc}
 8001d82:	4d7c      	ldr	r5, [pc, #496]	@ (8001f74 <HAL_RCC_OscConfig+0x294>)
 8001d84:	f5b2 2fa0 	cmp.w	r2, #327680	@ 0x50000
 8001d88:	682b      	ldr	r3, [r5, #0]
 8001d8a:	d107      	bne.n	8001d9c <HAL_RCC_OscConfig+0xbc>
 8001d8c:	f443 2380 	orr.w	r3, r3, #262144	@ 0x40000
 8001d90:	602b      	str	r3, [r5, #0]
 8001d92:	682b      	ldr	r3, [r5, #0]
 8001d94:	f443 3380 	orr.w	r3, r3, #65536	@ 0x10000
 8001d98:	602b      	str	r3, [r5, #0]
 8001d9a:	e7e2      	b.n	8001d62 <HAL_RCC_OscConfig+0x82>
 8001d9c:	f423 3380 	bic.w	r3, r3, #65536	@ 0x10000
 8001da0:	602b      	str	r3, [r5, #0]
 8001da2:	682b      	ldr	r3, [r5, #0]
 8001da4:	f423 2380 	bic.w	r3, r3, #262144	@ 0x40000
 8001da8:	602b      	str	r3, [r5, #0]
 8001daa:	2a00      	cmp	r2, #0
 8001dac:	d1d9      	bne.n	8001d62 <HAL_RCC_OscConfig+0x82>
 8001dae:	f7ff fb35 	bl	800141c <HAL_GetTick>
 8001db2:	4606      	mov	r6, r0
 8001db4:	682b      	ldr	r3, [r5, #0]
 8001db6:	039f      	lsls	r7, r3, #14
 8001db8:	d59a      	bpl.n	8001cf0 <HAL_RCC_OscConfig+0x10>
 8001dba:	f7ff fb2f 	bl	800141c <HAL_GetTick>
 8001dbe:	1b80      	subs	r0, r0, r6
 8001dc0:	2864      	cmp	r0, #100	@ 0x64
 8001dc2:	d9f7      	bls.n	8001db4 <HAL_RCC_OscConfig+0xd4>
 8001dc4:	e7d9      	b.n	8001d7a <HAL_RCC_OscConfig+0x9a>
 8001dc6:	4b6b      	ldr	r3, [pc, #428]	@ (8001f74 <HAL_RCC_OscConfig+0x294>)
 8001dc8:	689a      	ldr	r2, [r3, #8]
 8001dca:	f012 0f0c 	tst.w	r2, #12
 8001dce:	d010      	beq.n	8001df2 <HAL_RCC_OscConfig+0x112>
 8001dd0:	689a      	ldr	r2, [r3, #8]
 8001dd2:	f002 020c 	and.w	r2, r2, #12
 8001dd6:	2a08      	cmp	r2, #8
 8001dd8:	d102      	bne.n	8001de0 <HAL_RCC_OscConfig+0x100>
 8001dda:	685b      	ldr	r3, [r3, #4]
 8001ddc:	025e      	lsls	r6, r3, #9
 8001dde:	d508      	bpl.n	8001df2 <HAL_RCC_OscConfig+0x112>
 8001de0:	4a64      	ldr	r2, [pc, #400]	@ (8001f74 <HAL_RCC_OscConfig+0x294>)
 8001de2:	6893      	ldr	r3, [r2, #8]
 8001de4:	f003 030c 	and.w	r3, r3, #12
 8001de8:	2b0c      	cmp	r3, #12
 8001dea:	d111      	bne.n	8001e10 <HAL_RCC_OscConfig+0x130>
 8001dec:	6853      	ldr	r3, [r2, #4]
 8001dee:	025d      	lsls	r5, r3, #9
 8001df0:	d40e      	bmi.n	8001e10 <HAL_RCC_OscConfig+0x130>
 8001df2:	4a60      	ldr	r2, [pc, #384]	@ (8001f74 <HAL_RCC_OscConfig+0x294>)
 8001df4:	6813      	ldr	r3, [r2, #0]
 8001df6:	0799      	lsls	r1, r3, #30
 8001df8:	d502      	bpl.n	8001e00 <HAL_RCC_OscConfig+0x120>
 8001dfa:	68e3      	ldr	r3, [r4, #12]
 8001dfc:	2b01      	cmp	r3, #1
 8001dfe:	d1a6      	bne.n	8001d4e <HAL_RCC_OscConfig+0x6e>
 8001e00:	6813      	ldr	r3, [r2, #0]
 8001e02:	6921      	ldr	r1, [r4, #16]
 8001e04:	f023 03f8 	bic.w	r3, r3, #248	@ 0xf8
 8001e08:	ea43 03c1 	orr.w	r3, r3, r1, lsl #3
 8001e0c:	6013      	str	r3, [r2, #0]
 8001e0e:	e772      	b.n	8001cf6 <HAL_RCC_OscConfig+0x16>
 8001e10:	68e2      	ldr	r2, [r4, #12]
 8001e12:	4b59      	ldr	r3, [pc, #356]	@ (8001f78 <HAL_RCC_OscConfig+0x298>)
 8001e14:	b1b2      	cbz	r2, 8001e44 <HAL_RCC_OscConfig+0x164>
 8001e16:	2201      	movs	r2, #1
 8001e18:	601a      	str	r2, [r3, #0]
 8001e1a:	f7ff faff 	bl	800141c <HAL_GetTick>
 8001e1e:	4d55      	ldr	r5, [pc, #340]	@ (8001f74 <HAL_RCC_OscConfig+0x294>)
 8001e20:	4606      	mov	r6, r0
 8001e22:	682b      	ldr	r3, [r5, #0]
 8001e24:	079b      	lsls	r3, r3, #30
 8001e26:	d507      	bpl.n	8001e38 <HAL_RCC_OscConfig+0x158>
 8001e28:	682b      	ldr	r3, [r5, #0]
 8001e2a:	6922      	ldr	r2, [r4, #16]
 8001e2c:	f023 03f8 	bic.w	r3, r3, #248	@ 0xf8
 8001e30:	ea43 03c2 	orr.w	r3, r3, r2, lsl #3
 8001e34:	602b      	str	r3, [r5, #0]
 8001e36:	e75e      	b.n	8001cf6 <HAL_RCC_OscConfig+0x16>
 8001e38:	f7ff faf0 	bl	800141c <HAL_GetTick>
 8001e3c:	1b80      	subs	r0, r0, r6
 8001e3e:	2802      	cmp	r0, #2
 8001e40:	d9ef      	bls.n	8001e22 <HAL_RCC_OscConfig+0x142>
 8001e42:	e79a      	b.n	8001d7a <HAL_RCC_OscConfig+0x9a>
 8001e44:	601a      	str	r2, [r3, #0]
 8001e46:	f7ff fae9 	bl	800141c <HAL_GetTick>
 8001e4a:	4e4a      	ldr	r6, [pc, #296]	@ (8001f74 <HAL_RCC_OscConfig+0x294>)
 8001e4c:	4605      	mov	r5, r0
 8001e4e:	6833      	ldr	r3, [r6, #0]
 8001e50:	079f      	lsls	r7, r3, #30
 8001e52:	f57f af50 	bpl.w	8001cf6 <HAL_RCC_OscConfig+0x16>
 8001e56:	f7ff fae1 	bl	800141c <HAL_GetTick>
 8001e5a:	1b40      	subs	r0, r0, r5
 8001e5c:	2802      	cmp	r0, #2
 8001e5e:	d9f6      	bls.n	8001e4e <HAL_RCC_OscConfig+0x16e>
 8001e60:	e78b      	b.n	8001d7a <HAL_RCC_OscConfig+0x9a>
 8001e62:	6962      	ldr	r2, [r4, #20]
 8001e64:	4b44      	ldr	r3, [pc, #272]	@ (8001f78 <HAL_RCC_OscConfig+0x298>)
 8001e66:	b182      	cbz	r2, 8001e8a <HAL_RCC_OscConfig+0x1aa>
 8001e68:	2201      	movs	r2, #1
 8001e6a:	f8c3 2e80 	str.w	r2, [r3, #3712]	@ 0xe80
 8001e6e:	f7ff fad5 	bl	800141c <HAL_GetTick>
 8001e72:	4e40      	ldr	r6, [pc, #256]	@ (8001f74 <HAL_RCC_OscConfig+0x294>)
 8001e74:	4605      	mov	r5, r0
 8001e76:	6f73      	ldr	r3, [r6, #116]	@ 0x74
 8001e78:	079b      	lsls	r3, r3, #30
 8001e7a:	f53f af40 	bmi.w	8001cfe <HAL_RCC_OscConfig+0x1e>
 8001e7e:	f7ff facd 	bl	800141c <HAL_GetTick>
 8001e82:	1b40      	subs	r0, r0, r5
 8001e84:	2802      	cmp	r0, #2
 8001e86:	d9f6      	bls.n	8001e76 <HAL_RCC_OscConfig+0x196>
 8001e88:	e777      	b.n	8001d7a <HAL_RCC_OscConfig+0x9a>
 8001e8a:	f8c3 2e80 	str.w	r2, [r3, #3712]	@ 0xe80
 8001e8e:	f7ff fac5 	bl	800141c <HAL_GetTick>
 8001e92:	4e38      	ldr	r6, [pc, #224]	@ (8001f74 <HAL_RCC_OscConfig+0x294>)
 8001e94:	4605      	mov	r5, r0
 8001e96:	6f73      	ldr	r3, [r6, #116]	@ 0x74
 8001e98:	079f      	lsls	r7, r3, #30
 8001e9a:	f57f af30 	bpl.w	8001cfe <HAL_RCC_OscConfig+0x1e>
 8001e9e:	f7ff fabd 	bl	800141c <HAL_GetTick>
 8001ea2:	1b40      	subs	r0, r0, r5
 8001ea4:	2802      	cmp	r0, #2
 8001ea6:	d9f6      	bls.n	8001e96 <HAL_RCC_OscConfig+0x1b6>
 8001ea8:	e767      	b.n	8001d7a <HAL_RCC_OscConfig+0x9a>
 8001eaa:	4b32      	ldr	r3, [pc, #200]	@ (8001f74 <HAL_RCC_OscConfig+0x294>)
 8001eac:	6c1a      	ldr	r2, [r3, #64]	@ 0x40
 8001eae:	f012 5280 	ands.w	r2, r2, #268435456	@ 0x10000000
 8001eb2:	d128      	bne.n	8001f06 <HAL_RCC_OscConfig+0x226>
 8001eb4:	9201      	str	r2, [sp, #4]
 8001eb6:	6c1a      	ldr	r2, [r3, #64]	@ 0x40
 8001eb8:	f042 5280 	orr.w	r2, r2, #268435456	@ 0x10000000
 8001ebc:	641a      	str	r2, [r3, #64]	@ 0x40
 8001ebe:	6c1b      	ldr	r3, [r3, #64]	@ 0x40
 8001ec0:	f003 5380 	and.w	r3, r3, #268435456	@ 0x10000000
 8001ec4:	9301      	str	r3, [sp, #4]
 8001ec6:	9b01      	ldr	r3, [sp, #4]
 8001ec8:	2701      	movs	r7, #1
 8001eca:	4d2c      	ldr	r5, [pc, #176]	@ (8001f7c <HAL_RCC_OscConfig+0x29c>)
 8001ecc:	682b      	ldr	r3, [r5, #0]
 8001ece:	05d8      	lsls	r0, r3, #23
 8001ed0:	d51b      	bpl.n	8001f0a <HAL_RCC_OscConfig+0x22a>
 8001ed2:	68a3      	ldr	r3, [r4, #8]
 8001ed4:	4d27      	ldr	r5, [pc, #156]	@ (8001f74 <HAL_RCC_OscConfig+0x294>)
 8001ed6:	2b01      	cmp	r3, #1
 8001ed8:	d127      	bne.n	8001f2a <HAL_RCC_OscConfig+0x24a>
 8001eda:	6f2b      	ldr	r3, [r5, #112]	@ 0x70
 8001edc:	f043 0301 	orr.w	r3, r3, #1
 8001ee0:	672b      	str	r3, [r5, #112]	@ 0x70
 8001ee2:	f7ff fa9b 	bl	800141c <HAL_GetTick>
 8001ee6:	4e23      	ldr	r6, [pc, #140]	@ (8001f74 <HAL_RCC_OscConfig+0x294>)
 8001ee8:	4605      	mov	r5, r0
 8001eea:	f241 3888 	movw	r8, #5000	@ 0x1388
 8001eee:	6f33      	ldr	r3, [r6, #112]	@ 0x70
 8001ef0:	079a      	lsls	r2, r3, #30
 8001ef2:	d539      	bpl.n	8001f68 <HAL_RCC_OscConfig+0x288>
 8001ef4:	2f00      	cmp	r7, #0
 8001ef6:	f43f af06 	beq.w	8001d06 <HAL_RCC_OscConfig+0x26>
 8001efa:	4a1e      	ldr	r2, [pc, #120]	@ (8001f74 <HAL_RCC_OscConfig+0x294>)
 8001efc:	6c13      	ldr	r3, [r2, #64]	@ 0x40
 8001efe:	f023 5380 	bic.w	r3, r3, #268435456	@ 0x10000000
 8001f02:	6413      	str	r3, [r2, #64]	@ 0x40
 8001f04:	e6ff      	b.n	8001d06 <HAL_RCC_OscConfig+0x26>
 8001f06:	2700      	movs	r7, #0
 8001f08:	e7df      	b.n	8001eca <HAL_RCC_OscConfig+0x1ea>
 8001f0a:	682b      	ldr	r3, [r5, #0]
 8001f0c:	f443 7380 	orr.w	r3, r3, #256	@ 0x100
 8001f10:	602b      	str	r3, [r5, #0]
 8001f12:	f7ff fa83 	bl	800141c <HAL_GetTick>
 8001f16:	4606      	mov	r6, r0
 8001f18:	682b      	ldr	r3, [r5, #0]
 8001f1a:	05d9      	lsls	r1, r3, #23
 8001f1c:	d4d9      	bmi.n	8001ed2 <HAL_RCC_OscConfig+0x1f2>
 8001f1e:	f7ff fa7d 	bl	800141c <HAL_GetTick>
 8001f22:	1b80      	subs	r0, r0, r6
 8001f24:	2802      	cmp	r0, #2
 8001f26:	d9f7      	bls.n	8001f18 <HAL_RCC_OscConfig+0x238>
 8001f28:	e727      	b.n	8001d7a <HAL_RCC_OscConfig+0x9a>
 8001f2a:	2b05      	cmp	r3, #5
 8001f2c:	d104      	bne.n	8001f38 <HAL_RCC_OscConfig+0x258>
 8001f2e:	6f2b      	ldr	r3, [r5, #112]	@ 0x70
 8001f30:	f043 0304 	orr.w	r3, r3, #4
 8001f34:	672b      	str	r3, [r5, #112]	@ 0x70
 8001f36:	e7d0      	b.n	8001eda <HAL_RCC_OscConfig+0x1fa>
 8001f38:	6f2a      	ldr	r2, [r5, #112]	@ 0x70
 8001f3a:	f022 0201 	bic.w	r2, r2, #1
 8001f3e:	672a      	str	r2, [r5, #112]	@ 0x70
 8001f40:	6f2a      	ldr	r2, [r5, #112]	@ 0x70
 8001f42:	f022 0204 	bic.w	r2, r2, #4
 8001f46:	672a      	str	r2, [r5, #112]	@ 0x70
 8001f48:	2b00      	cmp	r3, #0
 8001f4a:	d1ca      	bne.n	8001ee2 <HAL_RCC_OscConfig+0x202>
 8001f4c:	f7ff fa66 	bl	800141c <HAL_GetTick>
 8001f50:	f241 3888 	movw	r8, #5000	@ 0x1388
 8001f54:	4606      	mov	r6, r0
 8001f56:	6f2b      	ldr	r3, [r5, #112]	@ 0x70
 8001f58:	079b      	lsls	r3, r3, #30
 8001f5a:	d5cb      	bpl.n	8001ef4 <HAL_RCC_OscConfig+0x214>
 8001f5c:	f7ff fa5e 	bl	800141c <HAL_GetTick>
 8001f60:	1b80      	subs	r0, r0, r6
 8001f62:	4540      	cmp	r0, r8
 8001f64:	d9f7      	bls.n	8001f56 <HAL_RCC_OscConfig+0x276>
 8001f66:	e708      	b.n	8001d7a <HAL_RCC_OscConfig+0x9a>
 8001f68:	f7ff fa58 	bl	800141c <HAL_GetTick>
 8001f6c:	1b40      	subs	r0, r0, r5
 8001f6e:	4540      	cmp	r0, r8
 8001f70:	d9bd      	bls.n	8001eee <HAL_RCC_OscConfig+0x20e>
 8001f72:	e702      	b.n	8001d7a <HAL_RCC_OscConfig+0x9a>
 8001f74:	40023800 	.word	0x40023800
 8001f78:	42470000 	.word	0x42470000
 8001f7c:	40007000 	.word	0x40007000
 8001f80:	4d3c      	ldr	r5, [pc, #240]	@ (8002074 <HAL_RCC_OscConfig+0x394>)
 8001f82:	68aa      	ldr	r2, [r5, #8]
 8001f84:	f002 020c 	and.w	r2, r2, #12
 8001f88:	2a08      	cmp	r2, #8
 8001f8a:	d041      	beq.n	8002010 <HAL_RCC_OscConfig+0x330>
 8001f8c:	2b02      	cmp	r3, #2
 8001f8e:	4b3a      	ldr	r3, [pc, #232]	@ (8002078 <HAL_RCC_OscConfig+0x398>)
 8001f90:	f04f 0200 	mov.w	r2, #0
 8001f94:	661a      	str	r2, [r3, #96]	@ 0x60
 8001f96:	d12e      	bne.n	8001ff6 <HAL_RCC_OscConfig+0x316>
 8001f98:	f7ff fa40 	bl	800141c <HAL_GetTick>
 8001f9c:	4606      	mov	r6, r0
 8001f9e:	682b      	ldr	r3, [r5, #0]
 8001fa0:	0199      	lsls	r1, r3, #6
 8001fa2:	d422      	bmi.n	8001fea <HAL_RCC_OscConfig+0x30a>
 8001fa4:	e9d4 3207 	ldrd	r3, r2, [r4, #28]
 8001fa8:	4313      	orrs	r3, r2
 8001faa:	6a62      	ldr	r2, [r4, #36]	@ 0x24
 8001fac:	ea43 1382 	orr.w	r3, r3, r2, lsl #6
 8001fb0:	6ae2      	ldr	r2, [r4, #44]	@ 0x2c
 8001fb2:	ea43 6302 	orr.w	r3, r3, r2, lsl #24
 8001fb6:	6b22      	ldr	r2, [r4, #48]	@ 0x30
 8001fb8:	ea43 7302 	orr.w	r3, r3, r2, lsl #28
 8001fbc:	6aa2      	ldr	r2, [r4, #40]	@ 0x28
 8001fbe:	0852      	lsrs	r2, r2, #1
 8001fc0:	3a01      	subs	r2, #1
 8001fc2:	ea43 4302 	orr.w	r3, r3, r2, lsl #16
 8001fc6:	606b      	str	r3, [r5, #4]
 8001fc8:	4b2b      	ldr	r3, [pc, #172]	@ (8002078 <HAL_RCC_OscConfig+0x398>)
 8001fca:	4d2a      	ldr	r5, [pc, #168]	@ (8002074 <HAL_RCC_OscConfig+0x394>)
 8001fcc:	2201      	movs	r2, #1
 8001fce:	661a      	str	r2, [r3, #96]	@ 0x60
 8001fd0:	f7ff fa24 	bl	800141c <HAL_GetTick>
 8001fd4:	4604      	mov	r4, r0
 8001fd6:	682b      	ldr	r3, [r5, #0]
 8001fd8:	019a      	lsls	r2, r3, #6
 8001fda:	f53f ae98 	bmi.w	8001d0e <HAL_RCC_OscConfig+0x2e>
 8001fde:	f7ff fa1d 	bl	800141c <HAL_GetTick>
 8001fe2:	1b00      	subs	r0, r0, r4
 8001fe4:	2802      	cmp	r0, #2
 8001fe6:	d9f6      	bls.n	8001fd6 <HAL_RCC_OscConfig+0x2f6>
 8001fe8:	e6c7      	b.n	8001d7a <HAL_RCC_OscConfig+0x9a>
 8001fea:	f7ff fa17 	bl	800141c <HAL_GetTick>
 8001fee:	1b80      	subs	r0, r0, r6
 8001ff0:	2802      	cmp	r0, #2
 8001ff2:	d9d4      	bls.n	8001f9e <HAL_RCC_OscConfig+0x2be>
 8001ff4:	e6c1      	b.n	8001d7a <HAL_RCC_OscConfig+0x9a>
 8001ff6:	f7ff fa11 	bl	800141c <HAL_GetTick>
 8001ffa:	4604      	mov	r4, r0
 8001ffc:	682b      	ldr	r3, [r5, #0]
 8001ffe:	019b      	lsls	r3, r3, #6
 8002000:	f57f ae85 	bpl.w	8001d0e <HAL_RCC_OscConfig+0x2e>
 8002004:	f7ff fa0a 	bl	800141c <HAL_GetTick>
 8002008:	1b00      	subs	r0, r0, r4
 800200a:	2802      	cmp	r0, #2
 800200c:	d9f6      	bls.n	8001ffc <HAL_RCC_OscConfig+0x31c>
 800200e:	e6b4      	b.n	8001d7a <HAL_RCC_OscConfig+0x9a>
 8002010:	2b01      	cmp	r3, #1
 8002012:	f43f ae9c 	beq.w	8001d4e <HAL_RCC_OscConfig+0x6e>
 8002016:	686b      	ldr	r3, [r5, #4]
 8002018:	69e2      	ldr	r2, [r4, #28]
 800201a:	f403 0180 	and.w	r1, r3, #4194304	@ 0x400000
 800201e:	4291      	cmp	r1, r2
 8002020:	f47f ae95 	bne.w	8001d4e <HAL_RCC_OscConfig+0x6e>
 8002024:	6a21      	ldr	r1, [r4, #32]
 8002026:	f003 023f 	and.w	r2, r3, #63	@ 0x3f
 800202a:	428a      	cmp	r2, r1
 800202c:	f47f ae8f 	bne.w	8001d4e <HAL_RCC_OscConfig+0x6e>
 8002030:	6a61      	ldr	r1, [r4, #36]	@ 0x24
 8002032:	f647 72c0 	movw	r2, #32704	@ 0x7fc0
 8002036:	401a      	ands	r2, r3
 8002038:	ebb2 1f81 	cmp.w	r2, r1, lsl #6
 800203c:	f47f ae87 	bne.w	8001d4e <HAL_RCC_OscConfig+0x6e>
 8002040:	6aa2      	ldr	r2, [r4, #40]	@ 0x28
 8002042:	0852      	lsrs	r2, r2, #1
 8002044:	f403 3140 	and.w	r1, r3, #196608	@ 0x30000
 8002048:	3a01      	subs	r2, #1
 800204a:	ebb1 4f02 	cmp.w	r1, r2, lsl #16
 800204e:	f47f ae7e 	bne.w	8001d4e <HAL_RCC_OscConfig+0x6e>
 8002052:	6ae1      	ldr	r1, [r4, #44]	@ 0x2c
 8002054:	f003 6270 	and.w	r2, r3, #251658240	@ 0xf000000
 8002058:	ebb2 6f01 	cmp.w	r2, r1, lsl #24
 800205c:	f47f ae77 	bne.w	8001d4e <HAL_RCC_OscConfig+0x6e>
 8002060:	6b22      	ldr	r2, [r4, #48]	@ 0x30
 8002062:	f003 43e0 	and.w	r3, r3, #1879048192	@ 0x70000000
 8002066:	ebb3 7f02 	cmp.w	r3, r2, lsl #28
 800206a:	bf14      	ite	ne
 800206c:	2001      	movne	r0, #1
 800206e:	2000      	moveq	r0, #0
 8002070:	e684      	b.n	8001d7c <HAL_RCC_OscConfig+0x9c>
 8002072:	bf00      	nop
 8002074:	40023800 	.word	0x40023800
 8002078:	42470000 	.word	0x42470000

0800207c <TIM_OC1_SetConfig>:
 800207c:	6a03      	ldr	r3, [r0, #32]
 800207e:	6a02      	ldr	r2, [r0, #32]
 8002080:	f022 0201 	bic.w	r2, r2, #1
 8002084:	b570      	push	{r4, r5, r6, lr}
 8002086:	6202      	str	r2, [r0, #32]
 8002088:	6844      	ldr	r4, [r0, #4]
 800208a:	6982      	ldr	r2, [r0, #24]
 800208c:	680d      	ldr	r5, [r1, #0]
 800208e:	f022 0273 	bic.w	r2, r2, #115	@ 0x73
 8002092:	432a      	orrs	r2, r5
 8002094:	688d      	ldr	r5, [r1, #8]
 8002096:	f023 0302 	bic.w	r3, r3, #2
 800209a:	432b      	orrs	r3, r5
 800209c:	4d0c      	ldr	r5, [pc, #48]	@ (80020d0 <TIM_OC1_SetConfig+0x54>)
 800209e:	42a8      	cmp	r0, r5
 80020a0:	d003      	beq.n	80020aa <TIM_OC1_SetConfig+0x2e>
 80020a2:	f505 6580 	add.w	r5, r5, #1024	@ 0x400
 80020a6:	42a8      	cmp	r0, r5
 80020a8:	d10b      	bne.n	80020c2 <TIM_OC1_SetConfig+0x46>
 80020aa:	68cd      	ldr	r5, [r1, #12]
 80020ac:	f023 0308 	bic.w	r3, r3, #8
 80020b0:	432b      	orrs	r3, r5
 80020b2:	e9d1 5605 	ldrd	r5, r6, [r1, #20]
 80020b6:	f424 7440 	bic.w	r4, r4, #768	@ 0x300
 80020ba:	4335      	orrs	r5, r6
 80020bc:	f023 0304 	bic.w	r3, r3, #4
 80020c0:	432c      	orrs	r4, r5
 80020c2:	6044      	str	r4, [r0, #4]
 80020c4:	6182      	str	r2, [r0, #24]
 80020c6:	684a      	ldr	r2, [r1, #4]
 80020c8:	6342      	str	r2, [r0, #52]	@ 0x34
 80020ca:	6203      	str	r3, [r0, #32]
 80020cc:	bd70      	pop	{r4, r5, r6, pc}
 80020ce:	bf00      	nop
 80020d0:	40010000 	.word	0x40010000

080020d4 <TIM_OC3_SetConfig>:
 80020d4:	6a03      	ldr	r3, [r0, #32]
 80020d6:	6a02      	ldr	r2, [r0, #32]
 80020d8:	f422 7280 	bic.w	r2, r2, #256	@ 0x100
 80020dc:	b570      	push	{r4, r5, r6, lr}
 80020de:	6202      	str	r2, [r0, #32]
 80020e0:	6844      	ldr	r4, [r0, #4]
 80020e2:	69c2      	ldr	r2, [r0, #28]
 80020e4:	680d      	ldr	r5, [r1, #0]
 80020e6:	f022 0273 	bic.w	r2, r2, #115	@ 0x73
 80020ea:	432a      	orrs	r2, r5
 80020ec:	688d      	ldr	r5, [r1, #8]
 80020ee:	f423 7300 	bic.w	r3, r3, #512	@ 0x200
 80020f2:	ea43 2305 	orr.w	r3, r3, r5, lsl #8
 80020f6:	4d0d      	ldr	r5, [pc, #52]	@ (800212c <TIM_OC3_SetConfig+0x58>)
 80020f8:	42a8      	cmp	r0, r5
 80020fa:	d003      	beq.n	8002104 <TIM_OC3_SetConfig+0x30>
 80020fc:	f505 6580 	add.w	r5, r5, #1024	@ 0x400
 8002100:	42a8      	cmp	r0, r5
 8002102:	d10d      	bne.n	8002120 <TIM_OC3_SetConfig+0x4c>
 8002104:	68cd      	ldr	r5, [r1, #12]
 8002106:	f423 6300 	bic.w	r3, r3, #2048	@ 0x800
 800210a:	ea43 2305 	orr.w	r3, r3, r5, lsl #8
 800210e:	e9d1 5605 	ldrd	r5, r6, [r1, #20]
 8002112:	f424 5440 	bic.w	r4, r4, #12288	@ 0x3000
 8002116:	4335      	orrs	r5, r6
 8002118:	f423 6380 	bic.w	r3, r3, #1024	@ 0x400
 800211c:	ea44 1405 	orr.w	r4, r4, r5, lsl #4
 8002120:	6044      	str	r4, [r0, #4]
 8002122:	61c2      	str	r2, [r0, #28]
 8002124:	684a      	ldr	r2, [r1, #4]
 8002126:	63c2      	str	r2, [r0, #60]	@ 0x3c
 8002128:	6203      	str	r3, [r0, #32]
 800212a:	bd70      	pop	{r4, r5, r6, pc}
 800212c:	40010000 	.word	0x40010000

08002130 <TIM_OC4_SetConfig>:
 8002130:	6a03      	ldr	r3, [r0, #32]
 8002132:	6a02      	ldr	r2, [r0, #32]
 8002134:	f422 5280 	bic.w	r2, r2, #4096	@ 0x1000
 8002138:	b530      	push	{r4, r5, lr}
 800213a:	6202      	str	r2, [r0, #32]
 800213c:	6844      	ldr	r4, [r0, #4]
 800213e:	69c2      	ldr	r2, [r0, #28]
 8002140:	680d      	ldr	r5, [r1, #0]
 8002142:	f422 42e6 	bic.w	r2, r2, #29440	@ 0x7300
 8002146:	ea42 2205 	orr.w	r2, r2, r5, lsl #8
 800214a:	688d      	ldr	r5, [r1, #8]
 800214c:	f423 5300 	bic.w	r3, r3, #8192	@ 0x2000
 8002150:	ea43 3305 	orr.w	r3, r3, r5, lsl #12
 8002154:	4d08      	ldr	r5, [pc, #32]	@ (8002178 <TIM_OC4_SetConfig+0x48>)
 8002156:	42a8      	cmp	r0, r5
 8002158:	d003      	beq.n	8002162 <TIM_OC4_SetConfig+0x32>
 800215a:	f505 6580 	add.w	r5, r5, #1024	@ 0x400
 800215e:	42a8      	cmp	r0, r5
 8002160:	d104      	bne.n	800216c <TIM_OC4_SetConfig+0x3c>
 8002162:	694d      	ldr	r5, [r1, #20]
 8002164:	f424 4480 	bic.w	r4, r4, #16384	@ 0x4000
 8002168:	ea44 1485 	orr.w	r4, r4, r5, lsl #6
 800216c:	6044      	str	r4, [r0, #4]
 800216e:	61c2      	str	r2, [r0, #28]
 8002170:	684a      	ldr	r2, [r1, #4]
 8002172:	6402      	str	r2, [r0, #64]	@ 0x40
 8002174:	6203      	str	r3, [r0, #32]
 8002176:	bd30      	pop	{r4, r5, pc}
 8002178:	40010000 	.word	0x40010000

0800217c <TIM_Base_SetConfig>:
 800217c:	4a27      	ldr	r2, [pc, #156]	@ (800221c <TIM_Base_SetConfig+0xa0>)
 800217e:	6803      	ldr	r3, [r0, #0]
 8002180:	4290      	cmp	r0, r2
 8002182:	d012      	beq.n	80021aa <TIM_Base_SetConfig+0x2e>
 8002184:	f1b0 4f80 	cmp.w	r0, #1073741824	@ 0x40000000
 8002188:	d00f      	beq.n	80021aa <TIM_Base_SetConfig+0x2e>
 800218a:	f5a2 427c 	sub.w	r2, r2, #64512	@ 0xfc00
 800218e:	4290      	cmp	r0, r2
 8002190:	d00b      	beq.n	80021aa <TIM_Base_SetConfig+0x2e>
 8002192:	f502 6280 	add.w	r2, r2, #1024	@ 0x400
 8002196:	4290      	cmp	r0, r2
 8002198:	d007      	beq.n	80021aa <TIM_Base_SetConfig+0x2e>
 800219a:	f502 6280 	add.w	r2, r2, #1024	@ 0x400
 800219e:	4290      	cmp	r0, r2
 80021a0:	d003      	beq.n	80021aa <TIM_Base_SetConfig+0x2e>
 80021a2:	f502 4278 	add.w	r2, r2, #63488	@ 0xf800
 80021a6:	4290      	cmp	r0, r2
 80021a8:	d108      	bne.n	80021bc <TIM_Base_SetConfig+0x40>
 80021aa:	684a      	ldr	r2, [r1, #4]
 80021ac:	f023 0370 	bic.w	r3, r3, #112	@ 0x70
 80021b0:	4313      	orrs	r3, r2
 80021b2:	68ca      	ldr	r2, [r1, #12]
 80021b4:	f423 7340 	bic.w	r3, r3, #768	@ 0x300
 80021b8:	4313      	orrs	r3, r2
 80021ba:	e016      	b.n	80021ea <TIM_Base_SetConfig+0x6e>
 80021bc:	4a18      	ldr	r2, [pc, #96]	@ (8002220 <TIM_Base_SetConfig+0xa4>)
 80021be:	4290      	cmp	r0, r2
 80021c0:	d0f7      	beq.n	80021b2 <TIM_Base_SetConfig+0x36>
 80021c2:	f502 6280 	add.w	r2, r2, #1024	@ 0x400
 80021c6:	4290      	cmp	r0, r2
 80021c8:	d0f3      	beq.n	80021b2 <TIM_Base_SetConfig+0x36>
 80021ca:	f502 6280 	add.w	r2, r2, #1024	@ 0x400
 80021ce:	4290      	cmp	r0, r2
 80021d0:	d0ef      	beq.n	80021b2 <TIM_Base_SetConfig+0x36>
 80021d2:	f5a2 3298 	sub.w	r2, r2, #77824	@ 0x13000
 80021d6:	4290      	cmp	r0, r2
 80021d8:	d0eb      	beq.n	80021b2 <TIM_Base_SetConfig+0x36>
 80021da:	f502 6280 	add.w	r2, r2, #1024	@ 0x400
 80021de:	4290      	cmp	r0, r2
 80021e0:	d0e7      	beq.n	80021b2 <TIM_Base_SetConfig+0x36>
 80021e2:	f502 6280 	add.w	r2, r2, #1024	@ 0x400
 80021e6:	4290      	cmp	r0, r2
 80021e8:	d0e3      	beq.n	80021b2 <TIM_Base_SetConfig+0x36>
 80021ea:	694a      	ldr	r2, [r1, #20]
 80021ec:	f023 0380 	bic.w	r3, r3, #128	@ 0x80
 80021f0:	4313      	orrs	r3, r2
 80021f2:	688a      	ldr	r2, [r1, #8]
 80021f4:	62c2      	str	r2, [r0, #44]	@ 0x2c
 80021f6:	680a      	ldr	r2, [r1, #0]
 80021f8:	6282      	str	r2, [r0, #40]	@ 0x28
 80021fa:	4a08      	ldr	r2, [pc, #32]	@ (800221c <TIM_Base_SetConfig+0xa0>)
 80021fc:	4290      	cmp	r0, r2
 80021fe:	d003      	beq.n	8002208 <TIM_Base_SetConfig+0x8c>
 8002200:	f502 6280 	add.w	r2, r2, #1024	@ 0x400
 8002204:	4290      	cmp	r0, r2
 8002206:	d101      	bne.n	800220c <TIM_Base_SetConfig+0x90>
 8002208:	690a      	ldr	r2, [r1, #16]
 800220a:	6302      	str	r2, [r0, #48]	@ 0x30
 800220c:	6802      	ldr	r2, [r0, #0]
 800220e:	f042 0204 	orr.w	r2, r2, #4
 8002212:	6002      	str	r2, [r0, #0]
 8002214:	2201      	movs	r2, #1
 8002216:	6142      	str	r2, [r0, #20]
 8002218:	6003      	str	r3, [r0, #0]
 800221a:	4770      	bx	lr
 800221c:	40010000 	.word	0x40010000
 8002220:	40014000 	.word	0x40014000

08002224 <HAL_TIM_PWM_Init>:
 8002224:	b510      	push	{r4, lr}
 8002226:	4604      	mov	r4, r0
 8002228:	b330      	cbz	r0, 8002278 <HAL_TIM_PWM_Init+0x54>
 800222a:	f890 303d 	ldrb.w	r3, [r0, #61]	@ 0x3d
 800222e:	f003 02ff 	and.w	r2, r3, #255	@ 0xff
 8002232:	b91b      	cbnz	r3, 800223c <HAL_TIM_PWM_Init+0x18>
 8002234:	f880 203c 	strb.w	r2, [r0, #60]	@ 0x3c
 8002238:	f7fe ffac 	bl	8001194 <HAL_TIM_PWM_MspInit>
 800223c:	2302      	movs	r3, #2
 800223e:	6820      	ldr	r0, [r4, #0]
 8002240:	f884 303d 	strb.w	r3, [r4, #61]	@ 0x3d
 8002244:	1d21      	adds	r1, r4, #4
 8002246:	f7ff ff99 	bl	800217c <TIM_Base_SetConfig>
 800224a:	2301      	movs	r3, #1
 800224c:	f884 3046 	strb.w	r3, [r4, #70]	@ 0x46
 8002250:	2000      	movs	r0, #0
 8002252:	f884 303e 	strb.w	r3, [r4, #62]	@ 0x3e
 8002256:	f884 303f 	strb.w	r3, [r4, #63]	@ 0x3f
 800225a:	f884 3040 	strb.w	r3, [r4, #64]	@ 0x40
 800225e:	f884 3041 	strb.w	r3, [r4, #65]	@ 0x41
 8002262:	f884 3042 	strb.w	r3, [r4, #66]	@ 0x42
 8002266:	f884 3043 	strb.w	r3, [r4, #67]	@ 0x43
 800226a:	f884 3044 	strb.w	r3, [r4, #68]	@ 0x44
 800226e:	f884 3045 	strb.w	r3, [r4, #69]	@ 0x45
 8002272:	f884 303d 	strb.w	r3, [r4, #61]	@ 0x3d
 8002276:	bd10      	pop	{r4, pc}
 8002278:	2001      	movs	r0, #1
 800227a:	e7fc      	b.n	8002276 <HAL_TIM_PWM_Init+0x52>

0800227c <TIM_OC2_SetConfig>:
 800227c:	6a03      	ldr	r3, [r0, #32]
 800227e:	6a02      	ldr	r2, [r0, #32]
 8002280:	f022 0210 	bic.w	r2, r2, #16
 8002284:	b570      	push	{r4, r5, r6, lr}
 8002286:	6202      	str	r2, [r0, #32]
 8002288:	6844      	ldr	r4, [r0, #4]
 800228a:	6982      	ldr	r2, [r0, #24]
 800228c:	680d      	ldr	r5, [r1, #0]
 800228e:	f422 42e6 	bic.w	r2, r2, #29440	@ 0x7300
 8002292:	ea42 2205 	orr.w	r2, r2, r5, lsl #8
 8002296:	688d      	ldr	r5, [r1, #8]
 8002298:	f023 0320 	bic.w	r3, r3, #32
 800229c:	ea43 1305 	orr.w	r3, r3, r5, lsl #4
 80022a0:	4d0d      	ldr	r5, [pc, #52]	@ (80022d8 <TIM_OC2_SetConfig+0x5c>)
 80022a2:	42a8      	cmp	r0, r5
 80022a4:	d003      	beq.n	80022ae <TIM_OC2_SetConfig+0x32>
 80022a6:	f505 6580 	add.w	r5, r5, #1024	@ 0x400
 80022aa:	42a8      	cmp	r0, r5
 80022ac:	d10d      	bne.n	80022ca <TIM_OC2_SetConfig+0x4e>
 80022ae:	68cd      	ldr	r5, [r1, #12]
 80022b0:	f023 0380 	bic.w	r3, r3, #128	@ 0x80
 80022b4:	ea43 1305 	orr.w	r3, r3, r5, lsl #4
 80022b8:	e9d1 5605 	ldrd	r5, r6, [r1, #20]
 80022bc:	f424 6440 	bic.w	r4, r4, #3072	@ 0xc00
 80022c0:	4335      	orrs	r5, r6
 80022c2:	f023 0340 	bic.w	r3, r3, #64	@ 0x40
 80022c6:	ea44 0485 	orr.w	r4, r4, r5, lsl #2
 80022ca:	6044      	str	r4, [r0, #4]
 80022cc:	6182      	str	r2, [r0, #24]
 80022ce:	684a      	ldr	r2, [r1, #4]
 80022d0:	6382      	str	r2, [r0, #56]	@ 0x38
 80022d2:	6203      	str	r3, [r0, #32]
 80022d4:	bd70      	pop	{r4, r5, r6, pc}
 80022d6:	bf00      	nop
 80022d8:	40010000 	.word	0x40010000

080022dc <HAL_TIM_PWM_ConfigChannel>:
 80022dc:	b538      	push	{r3, r4, r5, lr}
 80022de:	f890 303c 	ldrb.w	r3, [r0, #60]	@ 0x3c
 80022e2:	2b01      	cmp	r3, #1
 80022e4:	4604      	mov	r4, r0
 80022e6:	d04f      	beq.n	8002388 <HAL_TIM_PWM_ConfigChannel+0xac>
 80022e8:	2001      	movs	r0, #1
 80022ea:	2a08      	cmp	r2, #8
 80022ec:	f884 003c 	strb.w	r0, [r4, #60]	@ 0x3c
 80022f0:	d03a      	beq.n	8002368 <HAL_TIM_PWM_ConfigChannel+0x8c>
 80022f2:	d806      	bhi.n	8002302 <HAL_TIM_PWM_ConfigChannel+0x26>
 80022f4:	b1ba      	cbz	r2, 8002326 <HAL_TIM_PWM_ConfigChannel+0x4a>
 80022f6:	2a04      	cmp	r2, #4
 80022f8:	d026      	beq.n	8002348 <HAL_TIM_PWM_ConfigChannel+0x6c>
 80022fa:	2300      	movs	r3, #0
 80022fc:	f884 303c 	strb.w	r3, [r4, #60]	@ 0x3c
 8002300:	bd38      	pop	{r3, r4, r5, pc}
 8002302:	2a0c      	cmp	r2, #12
 8002304:	d1f9      	bne.n	80022fa <HAL_TIM_PWM_ConfigChannel+0x1e>
 8002306:	6820      	ldr	r0, [r4, #0]
 8002308:	f7ff ff12 	bl	8002130 <TIM_OC4_SetConfig>
 800230c:	69c3      	ldr	r3, [r0, #28]
 800230e:	690a      	ldr	r2, [r1, #16]
 8002310:	f443 6300 	orr.w	r3, r3, #2048	@ 0x800
 8002314:	61c3      	str	r3, [r0, #28]
 8002316:	69c3      	ldr	r3, [r0, #28]
 8002318:	f423 6380 	bic.w	r3, r3, #1024	@ 0x400
 800231c:	61c3      	str	r3, [r0, #28]
 800231e:	69c3      	ldr	r3, [r0, #28]
 8002320:	ea43 2302 	orr.w	r3, r3, r2, lsl #8
 8002324:	e02e      	b.n	8002384 <HAL_TIM_PWM_ConfigChannel+0xa8>
 8002326:	6820      	ldr	r0, [r4, #0]
 8002328:	f7ff fea8 	bl	800207c <TIM_OC1_SetConfig>
 800232c:	6983      	ldr	r3, [r0, #24]
 800232e:	690a      	ldr	r2, [r1, #16]
 8002330:	f043 0308 	orr.w	r3, r3, #8
 8002334:	6183      	str	r3, [r0, #24]
 8002336:	6983      	ldr	r3, [r0, #24]
 8002338:	f023 0304 	bic.w	r3, r3, #4
 800233c:	6183      	str	r3, [r0, #24]
 800233e:	6983      	ldr	r3, [r0, #24]
 8002340:	4313      	orrs	r3, r2
 8002342:	6183      	str	r3, [r0, #24]
 8002344:	2000      	movs	r0, #0
 8002346:	e7d8      	b.n	80022fa <HAL_TIM_PWM_ConfigChannel+0x1e>
 8002348:	6820      	ldr	r0, [r4, #0]
 800234a:	f7ff ff97 	bl	800227c <TIM_OC2_SetConfig>
 800234e:	6983      	ldr	r3, [r0, #24]
 8002350:	690a      	ldr	r2, [r1, #16]
 8002352:	f443 6300 	orr.w	r3, r3, #2048	@ 0x800
 8002356:	6183      	str	r3, [r0, #24]
 8002358:	6983      	ldr	r3, [r0, #24]
 800235a:	f423 6380 	bic.w	r3, r3, #1024	@ 0x400
 800235e:	6183      	str	r3, [r0, #24]
 8002360:	6983      	ldr	r3, [r0, #24]
 8002362:	ea43 2302 	orr.w	r3, r3, r2, lsl #8
 8002366:	e7ec      	b.n	8002342 <HAL_TIM_PWM_ConfigChannel+0x66>
 8002368:	6820      	ldr	r0, [r4, #0]
 800236a:	f7ff feb3 	bl	80020d4 <TIM_OC3_SetConfig>
 800236e:	69c3      	ldr	r3, [r0, #28]
 8002370:	690a      	ldr	r2, [r1, #16]
 8002372:	f043 0308 	orr.w	r3, r3, #8
 8002376:	61c3      	str	r3, [r0, #28]
 8002378:	69c3      	ldr	r3, [r0, #28]
 800237a:	f023 0304 	bic.w	r3, r3, #4
 800237e:	61c3      	str	r3, [r0, #28]
 8002380:	69c3      	ldr	r3, [r0, #28]
 8002382:	4313      	orrs	r3, r2
 8002384:	61c3      	str	r3, [r0, #28]
 8002386:	e7dd      	b.n	8002344 <HAL_TIM_PWM_ConfigChannel+0x68>
 8002388:	2002      	movs	r0, #2
 800238a:	e7b9      	b.n	8002300 <HAL_TIM_PWM_ConfigChannel+0x24>

0800238c <TIM_CCxChannelCmd>:
 800238c:	6a03      	ldr	r3, [r0, #32]
 800238e:	b510      	push	{r4, lr}
 8002390:	f001 011f 	and.w	r1, r1, #31
 8002394:	2401      	movs	r4, #1
 8002396:	408c      	lsls	r4, r1
 8002398:	ea23 0304 	bic.w	r3, r3, r4
 800239c:	6203      	str	r3, [r0, #32]
 800239e:	6a03      	ldr	r3, [r0, #32]
 80023a0:	408a      	lsls	r2, r1
 80023a2:	431a      	orrs	r2, r3
 80023a4:	6202      	str	r2, [r0, #32]
 80023a6:	bd10      	pop	{r4, pc}

080023a8 <HAL_TIM_OC_Start>:
 80023a8:	b508      	push	{r3, lr}
 80023aa:	b929      	cbnz	r1, 80023b8 <HAL_TIM_OC_Start+0x10>
 80023ac:	f890 303e 	ldrb.w	r3, [r0, #62]	@ 0x3e
 80023b0:	2b01      	cmp	r3, #1
 80023b2:	d01f      	beq.n	80023f4 <HAL_TIM_OC_Start+0x4c>
 80023b4:	2001      	movs	r0, #1
 80023b6:	e035      	b.n	8002424 <HAL_TIM_OC_Start+0x7c>
 80023b8:	2904      	cmp	r1, #4
 80023ba:	d107      	bne.n	80023cc <HAL_TIM_OC_Start+0x24>
 80023bc:	f890 303f 	ldrb.w	r3, [r0, #63]	@ 0x3f
 80023c0:	2b01      	cmp	r3, #1
 80023c2:	d1f7      	bne.n	80023b4 <HAL_TIM_OC_Start+0xc>
 80023c4:	2302      	movs	r3, #2
 80023c6:	f880 303f 	strb.w	r3, [r0, #63]	@ 0x3f
 80023ca:	e016      	b.n	80023fa <HAL_TIM_OC_Start+0x52>
 80023cc:	2908      	cmp	r1, #8
 80023ce:	bf0c      	ite	eq
 80023d0:	f890 3040 	ldrbeq.w	r3, [r0, #64]	@ 0x40
 80023d4:	f890 3041 	ldrbne.w	r3, [r0, #65]	@ 0x41
 80023d8:	3b01      	subs	r3, #1
 80023da:	bf18      	it	ne
 80023dc:	2301      	movne	r3, #1
 80023de:	2b00      	cmp	r3, #0
 80023e0:	d1e8      	bne.n	80023b4 <HAL_TIM_OC_Start+0xc>
 80023e2:	2908      	cmp	r1, #8
 80023e4:	f04f 0302 	mov.w	r3, #2
 80023e8:	bf0c      	ite	eq
 80023ea:	f880 3040 	strbeq.w	r3, [r0, #64]	@ 0x40
 80023ee:	f880 3041 	strbne.w	r3, [r0, #65]	@ 0x41
 80023f2:	e002      	b.n	80023fa <HAL_TIM_OC_Start+0x52>
 80023f4:	2302      	movs	r3, #2
 80023f6:	f880 303e 	strb.w	r3, [r0, #62]	@ 0x3e
 80023fa:	6800      	ldr	r0, [r0, #0]
 80023fc:	2201      	movs	r2, #1
 80023fe:	f7ff ffc5 	bl	800238c <TIM_CCxChannelCmd>
 8002402:	4b16      	ldr	r3, [pc, #88]	@ (800245c <HAL_TIM_OC_Start+0xb4>)
 8002404:	4298      	cmp	r0, r3
 8002406:	d003      	beq.n	8002410 <HAL_TIM_OC_Start+0x68>
 8002408:	f503 6380 	add.w	r3, r3, #1024	@ 0x400
 800240c:	4298      	cmp	r0, r3
 800240e:	d10a      	bne.n	8002426 <HAL_TIM_OC_Start+0x7e>
 8002410:	6c43      	ldr	r3, [r0, #68]	@ 0x44
 8002412:	f443 4300 	orr.w	r3, r3, #32768	@ 0x8000
 8002416:	6443      	str	r3, [r0, #68]	@ 0x44
 8002418:	6883      	ldr	r3, [r0, #8]
 800241a:	f003 0307 	and.w	r3, r3, #7
 800241e:	2b06      	cmp	r3, #6
 8002420:	d117      	bne.n	8002452 <HAL_TIM_OC_Start+0xaa>
 8002422:	2000      	movs	r0, #0
 8002424:	bd08      	pop	{r3, pc}
 8002426:	f1b0 4f80 	cmp.w	r0, #1073741824	@ 0x40000000
 800242a:	d0f5      	beq.n	8002418 <HAL_TIM_OC_Start+0x70>
 800242c:	4b0c      	ldr	r3, [pc, #48]	@ (8002460 <HAL_TIM_OC_Start+0xb8>)
 800242e:	4298      	cmp	r0, r3
 8002430:	d0f2      	beq.n	8002418 <HAL_TIM_OC_Start+0x70>
 8002432:	f503 6380 	add.w	r3, r3, #1024	@ 0x400
 8002436:	4298      	cmp	r0, r3
 8002438:	d0ee      	beq.n	8002418 <HAL_TIM_OC_Start+0x70>
 800243a:	f503 6380 	add.w	r3, r3, #1024	@ 0x400
 800243e:	4298      	cmp	r0, r3
 8002440:	d0ea      	beq.n	8002418 <HAL_TIM_OC_Start+0x70>
 8002442:	f503 339a 	add.w	r3, r3, #78848	@ 0x13400
 8002446:	4298      	cmp	r0, r3
 8002448:	d0e6      	beq.n	8002418 <HAL_TIM_OC_Start+0x70>
 800244a:	f5a3 3394 	sub.w	r3, r3, #75776	@ 0x12800
 800244e:	4298      	cmp	r0, r3
 8002450:	d0e2      	beq.n	8002418 <HAL_TIM_OC_Start+0x70>
 8002452:	6803      	ldr	r3, [r0, #0]
 8002454:	f043 0301 	orr.w	r3, r3, #1
 8002458:	6003      	str	r3, [r0, #0]
 800245a:	e7e2      	b.n	8002422 <HAL_TIM_OC_Start+0x7a>
 800245c:	40010000 	.word	0x40010000
 8002460:	40000400 	.word	0x40000400

08002464 <HAL_TIM_PWM_Start>:
 8002464:	f7ff bfa0 	b.w	80023a8 <HAL_TIM_OC_Start>

08002468 <HAL_TIMEx_MasterConfigSynchronization>:
 8002468:	b530      	push	{r4, r5, lr}
 800246a:	f890 303c 	ldrb.w	r3, [r0, #60]	@ 0x3c
 800246e:	2b01      	cmp	r3, #1
 8002470:	4602      	mov	r2, r0
 8002472:	f04f 0002 	mov.w	r0, #2
 8002476:	d032      	beq.n	80024de <HAL_TIMEx_MasterConfigSynchronization+0x76>
 8002478:	6813      	ldr	r3, [r2, #0]
 800247a:	f882 003d 	strb.w	r0, [r2, #61]	@ 0x3d
 800247e:	685c      	ldr	r4, [r3, #4]
 8002480:	680d      	ldr	r5, [r1, #0]
 8002482:	6898      	ldr	r0, [r3, #8]
 8002484:	f024 0470 	bic.w	r4, r4, #112	@ 0x70
 8002488:	432c      	orrs	r4, r5
 800248a:	605c      	str	r4, [r3, #4]
 800248c:	4c14      	ldr	r4, [pc, #80]	@ (80024e0 <HAL_TIMEx_MasterConfigSynchronization+0x78>)
 800248e:	42a3      	cmp	r3, r4
 8002490:	d01a      	beq.n	80024c8 <HAL_TIMEx_MasterConfigSynchronization+0x60>
 8002492:	f1b3 4f80 	cmp.w	r3, #1073741824	@ 0x40000000
 8002496:	d017      	beq.n	80024c8 <HAL_TIMEx_MasterConfigSynchronization+0x60>
 8002498:	f5a4 447c 	sub.w	r4, r4, #64512	@ 0xfc00
 800249c:	42a3      	cmp	r3, r4
 800249e:	d013      	beq.n	80024c8 <HAL_TIMEx_MasterConfigSynchronization+0x60>
 80024a0:	f504 6480 	add.w	r4, r4, #1024	@ 0x400
 80024a4:	42a3      	cmp	r3, r4
 80024a6:	d00f      	beq.n	80024c8 <HAL_TIMEx_MasterConfigSynchronization+0x60>
 80024a8:	f504 6480 	add.w	r4, r4, #1024	@ 0x400
 80024ac:	42a3      	cmp	r3, r4
 80024ae:	d00b      	beq.n	80024c8 <HAL_TIMEx_MasterConfigSynchronization+0x60>
 80024b0:	f504 4478 	add.w	r4, r4, #63488	@ 0xf800
 80024b4:	42a3      	cmp	r3, r4
 80024b6:	d007      	beq.n	80024c8 <HAL_TIMEx_MasterConfigSynchronization+0x60>
 80024b8:	f504 5470 	add.w	r4, r4, #15360	@ 0x3c00
 80024bc:	42a3      	cmp	r3, r4
 80024be:	d003      	beq.n	80024c8 <HAL_TIMEx_MasterConfigSynchronization+0x60>
 80024c0:	f5a4 3494 	sub.w	r4, r4, #75776	@ 0x12800
 80024c4:	42a3      	cmp	r3, r4
 80024c6:	d104      	bne.n	80024d2 <HAL_TIMEx_MasterConfigSynchronization+0x6a>
 80024c8:	6849      	ldr	r1, [r1, #4]
 80024ca:	f020 0080 	bic.w	r0, r0, #128	@ 0x80
 80024ce:	4301      	orrs	r1, r0
 80024d0:	6099      	str	r1, [r3, #8]
 80024d2:	2301      	movs	r3, #1
 80024d4:	2000      	movs	r0, #0
 80024d6:	f882 303d 	strb.w	r3, [r2, #61]	@ 0x3d
 80024da:	f882 003c 	strb.w	r0, [r2, #60]	@ 0x3c
 80024de:	bd30      	pop	{r4, r5, pc}
 80024e0:	40010000 	.word	0x40010000

080024e4 <UART_EndRxTransfer>:
 80024e4:	6802      	ldr	r2, [r0, #0]
 80024e6:	f102 030c 	add.w	r3, r2, #12
 80024ea:	e853 3f00 	ldrex	r3, [r3]
 80024ee:	f423 7390 	bic.w	r3, r3, #288	@ 0x120
 80024f2:	320c      	adds	r2, #12
 80024f4:	e842 3100 	strex	r1, r3, [r2]
 80024f8:	6802      	ldr	r2, [r0, #0]
 80024fa:	2900      	cmp	r1, #0
 80024fc:	d1f2      	bne.n	80024e4 <UART_EndRxTransfer>
 80024fe:	f102 0314 	add.w	r3, r2, #20
 8002502:	e853 3f00 	ldrex	r3, [r3]
 8002506:	f023 0301 	bic.w	r3, r3, #1
 800250a:	f102 0c14 	add.w	ip, r2, #20
 800250e:	e84c 3100 	strex	r1, r3, [ip]
 8002512:	2900      	cmp	r1, #0
 8002514:	d1f3      	bne.n	80024fe <UART_EndRxTransfer+0x1a>
 8002516:	6b03      	ldr	r3, [r0, #48]	@ 0x30
 8002518:	2b01      	cmp	r3, #1
 800251a:	d10b      	bne.n	8002534 <UART_EndRxTransfer+0x50>
 800251c:	f102 030c 	add.w	r3, r2, #12
 8002520:	e853 3f00 	ldrex	r3, [r3]
 8002524:	f023 0310 	bic.w	r3, r3, #16
 8002528:	f102 0c0c 	add.w	ip, r2, #12
 800252c:	e84c 3100 	strex	r1, r3, [ip]
 8002530:	2900      	cmp	r1, #0
 8002532:	d1f3      	bne.n	800251c <UART_EndRxTransfer+0x38>
 8002534:	2320      	movs	r3, #32
 8002536:	f880 3042 	strb.w	r3, [r0, #66]	@ 0x42
 800253a:	2300      	movs	r3, #0
 800253c:	6303      	str	r3, [r0, #48]	@ 0x30
 800253e:	4770      	bx	lr

08002540 <UART_SetConfig>:
 8002540:	6802      	ldr	r2, [r0, #0]
 8002542:	68c1      	ldr	r1, [r0, #12]
 8002544:	b538      	push	{r3, r4, r5, lr}
 8002546:	6913      	ldr	r3, [r2, #16]
 8002548:	f423 5340 	bic.w	r3, r3, #12288	@ 0x3000
 800254c:	430b      	orrs	r3, r1
 800254e:	6113      	str	r3, [r2, #16]
 8002550:	4605      	mov	r5, r0
 8002552:	6883      	ldr	r3, [r0, #8]
 8002554:	6900      	ldr	r0, [r0, #16]
 8002556:	68d1      	ldr	r1, [r2, #12]
 8002558:	4303      	orrs	r3, r0
 800255a:	6968      	ldr	r0, [r5, #20]
 800255c:	4303      	orrs	r3, r0
 800255e:	69e8      	ldr	r0, [r5, #28]
 8002560:	f421 4116 	bic.w	r1, r1, #38400	@ 0x9600
 8002564:	f021 010c 	bic.w	r1, r1, #12
 8002568:	4303      	orrs	r3, r0
 800256a:	430b      	orrs	r3, r1
 800256c:	60d3      	str	r3, [r2, #12]
 800256e:	6953      	ldr	r3, [r2, #20]
 8002570:	69a9      	ldr	r1, [r5, #24]
 8002572:	f423 7340 	bic.w	r3, r3, #768	@ 0x300
 8002576:	430b      	orrs	r3, r1
 8002578:	6153      	str	r3, [r2, #20]
 800257a:	4b1f      	ldr	r3, [pc, #124]	@ (80025f8 <UART_SetConfig+0xb8>)
 800257c:	429a      	cmp	r2, r3
 800257e:	d003      	beq.n	8002588 <UART_SetConfig+0x48>
 8002580:	f503 6380 	add.w	r3, r3, #1024	@ 0x400
 8002584:	429a      	cmp	r2, r3
 8002586:	d124      	bne.n	80025d2 <UART_SetConfig+0x92>
 8002588:	f7ff fb52 	bl	8001c30 <HAL_RCC_GetPCLK2Freq>
 800258c:	69ea      	ldr	r2, [r5, #28]
 800258e:	2119      	movs	r1, #25
 8002590:	f5b2 4f00 	cmp.w	r2, #32768	@ 0x8000
 8002594:	e9d5 4300 	ldrd	r4, r3, [r5]
 8002598:	fba0 0101 	umull	r0, r1, r0, r1
 800259c:	d11c      	bne.n	80025d8 <UART_SetConfig+0x98>
 800259e:	18da      	adds	r2, r3, r3
 80025a0:	f04f 0500 	mov.w	r5, #0
 80025a4:	eb45 0305 	adc.w	r3, r5, r5
 80025a8:	f7fe f988 	bl	80008bc <__aeabi_uldivmod>
 80025ac:	2264      	movs	r2, #100	@ 0x64
 80025ae:	fbb0 f1f2 	udiv	r1, r0, r2
 80025b2:	fb02 0311 	mls	r3, r2, r1, r0
 80025b6:	00db      	lsls	r3, r3, #3
 80025b8:	3332      	adds	r3, #50	@ 0x32
 80025ba:	fbb3 f3f2 	udiv	r3, r3, r2
 80025be:	f003 0207 	and.w	r2, r3, #7
 80025c2:	005b      	lsls	r3, r3, #1
 80025c4:	eb02 1201 	add.w	r2, r2, r1, lsl #4
 80025c8:	f403 73f8 	and.w	r3, r3, #496	@ 0x1f0
 80025cc:	4413      	add	r3, r2
 80025ce:	60a3      	str	r3, [r4, #8]
 80025d0:	bd38      	pop	{r3, r4, r5, pc}
 80025d2:	f7ff fb1d 	bl	8001c10 <HAL_RCC_GetPCLK1Freq>
 80025d6:	e7d9      	b.n	800258c <UART_SetConfig+0x4c>
 80025d8:	009a      	lsls	r2, r3, #2
 80025da:	0f9b      	lsrs	r3, r3, #30
 80025dc:	f7fe f96e 	bl	80008bc <__aeabi_uldivmod>
 80025e0:	2264      	movs	r2, #100	@ 0x64
 80025e2:	fbb0 f1f2 	udiv	r1, r0, r2
 80025e6:	fb02 0311 	mls	r3, r2, r1, r0
 80025ea:	011b      	lsls	r3, r3, #4
 80025ec:	3332      	adds	r3, #50	@ 0x32
 80025ee:	fbb3 f3f2 	udiv	r3, r3, r2
 80025f2:	eb03 1301 	add.w	r3, r3, r1, lsl #4
 80025f6:	e7ea      	b.n	80025ce <UART_SetConfig+0x8e>
 80025f8:	40011000 	.word	0x40011000

080025fc <UART_WaitOnFlagUntilTimeout.constprop.0>:
 80025fc:	b5f7      	push	{r0, r1, r2, r4, r5, r6, r7, lr}
 80025fe:	4605      	mov	r5, r0
 8002600:	460c      	mov	r4, r1
 8002602:	4617      	mov	r7, r2
 8002604:	461e      	mov	r6, r3
 8002606:	682a      	ldr	r2, [r5, #0]
 8002608:	6813      	ldr	r3, [r2, #0]
 800260a:	ea34 0303 	bics.w	r3, r4, r3
 800260e:	d101      	bne.n	8002614 <UART_WaitOnFlagUntilTimeout.constprop.0+0x18>
 8002610:	2000      	movs	r0, #0
 8002612:	e021      	b.n	8002658 <UART_WaitOnFlagUntilTimeout.constprop.0+0x5c>
 8002614:	1c70      	adds	r0, r6, #1
 8002616:	d0f7      	beq.n	8002608 <UART_WaitOnFlagUntilTimeout.constprop.0+0xc>
 8002618:	f7fe ff00 	bl	800141c <HAL_GetTick>
 800261c:	1bc0      	subs	r0, r0, r7
 800261e:	4286      	cmp	r6, r0
 8002620:	d31c      	bcc.n	800265c <UART_WaitOnFlagUntilTimeout.constprop.0+0x60>
 8002622:	b1de      	cbz	r6, 800265c <UART_WaitOnFlagUntilTimeout.constprop.0+0x60>
 8002624:	682b      	ldr	r3, [r5, #0]
 8002626:	68da      	ldr	r2, [r3, #12]
 8002628:	0751      	lsls	r1, r2, #29
 800262a:	d5ec      	bpl.n	8002606 <UART_WaitOnFlagUntilTimeout.constprop.0+0xa>
 800262c:	2c80      	cmp	r4, #128	@ 0x80
 800262e:	d0ea      	beq.n	8002606 <UART_WaitOnFlagUntilTimeout.constprop.0+0xa>
 8002630:	2c40      	cmp	r4, #64	@ 0x40
 8002632:	d0e8      	beq.n	8002606 <UART_WaitOnFlagUntilTimeout.constprop.0+0xa>
 8002634:	681a      	ldr	r2, [r3, #0]
 8002636:	0712      	lsls	r2, r2, #28
 8002638:	d5e5      	bpl.n	8002606 <UART_WaitOnFlagUntilTimeout.constprop.0+0xa>
 800263a:	2400      	movs	r4, #0
 800263c:	9401      	str	r4, [sp, #4]
 800263e:	681a      	ldr	r2, [r3, #0]
 8002640:	9201      	str	r2, [sp, #4]
 8002642:	685b      	ldr	r3, [r3, #4]
 8002644:	9301      	str	r3, [sp, #4]
 8002646:	4628      	mov	r0, r5
 8002648:	9b01      	ldr	r3, [sp, #4]
 800264a:	f7ff ff4b 	bl	80024e4 <UART_EndRxTransfer>
 800264e:	2308      	movs	r3, #8
 8002650:	646b      	str	r3, [r5, #68]	@ 0x44
 8002652:	f885 4040 	strb.w	r4, [r5, #64]	@ 0x40
 8002656:	2001      	movs	r0, #1
 8002658:	b003      	add	sp, #12
 800265a:	bdf0      	pop	{r4, r5, r6, r7, pc}
 800265c:	2003      	movs	r0, #3
 800265e:	e7fb      	b.n	8002658 <UART_WaitOnFlagUntilTimeout.constprop.0+0x5c>

08002660 <HAL_UART_Init>:
 8002660:	b510      	push	{r4, lr}
 8002662:	4604      	mov	r4, r0
 8002664:	b348      	cbz	r0, 80026ba <HAL_UART_Init+0x5a>
 8002666:	f890 3041 	ldrb.w	r3, [r0, #65]	@ 0x41
 800266a:	f003 02ff 	and.w	r2, r3, #255	@ 0xff
 800266e:	b91b      	cbnz	r3, 8002678 <HAL_UART_Init+0x18>
 8002670:	f880 2040 	strb.w	r2, [r0, #64]	@ 0x40
 8002674:	f7fe fdcc 	bl	8001210 <HAL_UART_MspInit>
 8002678:	6822      	ldr	r2, [r4, #0]
 800267a:	2324      	movs	r3, #36	@ 0x24
 800267c:	f884 3041 	strb.w	r3, [r4, #65]	@ 0x41
 8002680:	68d3      	ldr	r3, [r2, #12]
 8002682:	f423 5300 	bic.w	r3, r3, #8192	@ 0x2000
 8002686:	60d3      	str	r3, [r2, #12]
 8002688:	4620      	mov	r0, r4
 800268a:	f7ff ff59 	bl	8002540 <UART_SetConfig>
 800268e:	6823      	ldr	r3, [r4, #0]
 8002690:	691a      	ldr	r2, [r3, #16]
 8002692:	f422 4290 	bic.w	r2, r2, #18432	@ 0x4800
 8002696:	611a      	str	r2, [r3, #16]
 8002698:	695a      	ldr	r2, [r3, #20]
 800269a:	f022 022a 	bic.w	r2, r2, #42	@ 0x2a
 800269e:	615a      	str	r2, [r3, #20]
 80026a0:	68da      	ldr	r2, [r3, #12]
 80026a2:	f442 5200 	orr.w	r2, r2, #8192	@ 0x2000
 80026a6:	60da      	str	r2, [r3, #12]
 80026a8:	2000      	movs	r0, #0
 80026aa:	2320      	movs	r3, #32
 80026ac:	6460      	str	r0, [r4, #68]	@ 0x44
 80026ae:	f884 3041 	strb.w	r3, [r4, #65]	@ 0x41
 80026b2:	f884 3042 	strb.w	r3, [r4, #66]	@ 0x42
 80026b6:	6360      	str	r0, [r4, #52]	@ 0x34
 80026b8:	bd10      	pop	{r4, pc}
 80026ba:	2001      	movs	r0, #1
 80026bc:	e7fc      	b.n	80026b8 <HAL_UART_Init+0x58>

080026be <HAL_UART_Transmit>:
 80026be:	e92d 43f8 	stmdb	sp!, {r3, r4, r5, r6, r7, r8, r9, lr}
 80026c2:	4698      	mov	r8, r3
 80026c4:	f890 3041 	ldrb.w	r3, [r0, #65]	@ 0x41
 80026c8:	2b20      	cmp	r3, #32
 80026ca:	4604      	mov	r4, r0
 80026cc:	460e      	mov	r6, r1
 80026ce:	4617      	mov	r7, r2
 80026d0:	d13f      	bne.n	8002752 <HAL_UART_Transmit+0x94>
 80026d2:	2900      	cmp	r1, #0
 80026d4:	d03f      	beq.n	8002756 <HAL_UART_Transmit+0x98>
 80026d6:	2a00      	cmp	r2, #0
 80026d8:	d03d      	beq.n	8002756 <HAL_UART_Transmit+0x98>
 80026da:	2321      	movs	r3, #33	@ 0x21
 80026dc:	2500      	movs	r5, #0
 80026de:	6445      	str	r5, [r0, #68]	@ 0x44
 80026e0:	f880 3041 	strb.w	r3, [r0, #65]	@ 0x41
 80026e4:	f7fe fe9a 	bl	800141c <HAL_GetTick>
 80026e8:	68a3      	ldr	r3, [r4, #8]
 80026ea:	84a7      	strh	r7, [r4, #36]	@ 0x24
 80026ec:	f5b3 5f80 	cmp.w	r3, #4096	@ 0x1000
 80026f0:	4681      	mov	r9, r0
 80026f2:	84e7      	strh	r7, [r4, #38]	@ 0x26
 80026f4:	d103      	bne.n	80026fe <HAL_UART_Transmit+0x40>
 80026f6:	6923      	ldr	r3, [r4, #16]
 80026f8:	b90b      	cbnz	r3, 80026fe <HAL_UART_Transmit+0x40>
 80026fa:	4635      	mov	r5, r6
 80026fc:	461e      	mov	r6, r3
 80026fe:	8ce3      	ldrh	r3, [r4, #38]	@ 0x26
 8002700:	b29b      	uxth	r3, r3
 8002702:	b953      	cbnz	r3, 800271a <HAL_UART_Transmit+0x5c>
 8002704:	4643      	mov	r3, r8
 8002706:	464a      	mov	r2, r9
 8002708:	2140      	movs	r1, #64	@ 0x40
 800270a:	4620      	mov	r0, r4
 800270c:	f7ff ff76 	bl	80025fc <UART_WaitOnFlagUntilTimeout.constprop.0>
 8002710:	2320      	movs	r3, #32
 8002712:	b950      	cbnz	r0, 800272a <HAL_UART_Transmit+0x6c>
 8002714:	f884 3041 	strb.w	r3, [r4, #65]	@ 0x41
 8002718:	e00a      	b.n	8002730 <HAL_UART_Transmit+0x72>
 800271a:	4643      	mov	r3, r8
 800271c:	464a      	mov	r2, r9
 800271e:	2180      	movs	r1, #128	@ 0x80
 8002720:	4620      	mov	r0, r4
 8002722:	f7ff ff6b 	bl	80025fc <UART_WaitOnFlagUntilTimeout.constprop.0>
 8002726:	b128      	cbz	r0, 8002734 <HAL_UART_Transmit+0x76>
 8002728:	2320      	movs	r3, #32
 800272a:	f884 3041 	strb.w	r3, [r4, #65]	@ 0x41
 800272e:	2003      	movs	r0, #3
 8002730:	e8bd 83f8 	ldmia.w	sp!, {r3, r4, r5, r6, r7, r8, r9, pc}
 8002734:	6822      	ldr	r2, [r4, #0]
 8002736:	b94e      	cbnz	r6, 800274c <HAL_UART_Transmit+0x8e>
 8002738:	f835 3b02 	ldrh.w	r3, [r5], #2
 800273c:	f3c3 0308 	ubfx	r3, r3, #0, #9
 8002740:	6053      	str	r3, [r2, #4]
 8002742:	8ce1      	ldrh	r1, [r4, #38]	@ 0x26
 8002744:	3901      	subs	r1, #1
 8002746:	b289      	uxth	r1, r1
 8002748:	84e1      	strh	r1, [r4, #38]	@ 0x26
 800274a:	e7d8      	b.n	80026fe <HAL_UART_Transmit+0x40>
 800274c:	f816 3b01 	ldrb.w	r3, [r6], #1
 8002750:	e7f6      	b.n	8002740 <HAL_UART_Transmit+0x82>
 8002752:	2002      	movs	r0, #2
 8002754:	e7ec      	b.n	8002730 <HAL_UART_Transmit+0x72>
 8002756:	2001      	movs	r0, #1
 8002758:	e7ea      	b.n	8002730 <HAL_UART_Transmit+0x72>
	...

0800275c <std>:
 800275c:	2300      	movs	r3, #0
 800275e:	b510      	push	{r4, lr}
 8002760:	4604      	mov	r4, r0
 8002762:	e9c0 3300 	strd	r3, r3, [r0]
 8002766:	e9c0 3304 	strd	r3, r3, [r0, #16]
 800276a:	6083      	str	r3, [r0, #8]
 800276c:	8181      	strh	r1, [r0, #12]
 800276e:	6643      	str	r3, [r0, #100]	@ 0x64
 8002770:	81c2      	strh	r2, [r0, #14]
 8002772:	6183      	str	r3, [r0, #24]
 8002774:	4619      	mov	r1, r3
 8002776:	2208      	movs	r2, #8
 8002778:	305c      	adds	r0, #92	@ 0x5c
 800277a:	f000 f906 	bl	800298a <memset>
 800277e:	4b0d      	ldr	r3, [pc, #52]	@ (80027b4 <std+0x58>)
 8002780:	6263      	str	r3, [r4, #36]	@ 0x24
 8002782:	4b0d      	ldr	r3, [pc, #52]	@ (80027b8 <std+0x5c>)
 8002784:	62a3      	str	r3, [r4, #40]	@ 0x28
 8002786:	4b0d      	ldr	r3, [pc, #52]	@ (80027bc <std+0x60>)
 8002788:	62e3      	str	r3, [r4, #44]	@ 0x2c
 800278a:	4b0d      	ldr	r3, [pc, #52]	@ (80027c0 <std+0x64>)
 800278c:	6323      	str	r3, [r4, #48]	@ 0x30
 800278e:	4b0d      	ldr	r3, [pc, #52]	@ (80027c4 <std+0x68>)
 8002790:	6224      	str	r4, [r4, #32]
 8002792:	429c      	cmp	r4, r3
 8002794:	d006      	beq.n	80027a4 <std+0x48>
 8002796:	f103 0268 	add.w	r2, r3, #104	@ 0x68
 800279a:	4294      	cmp	r4, r2
 800279c:	d002      	beq.n	80027a4 <std+0x48>
 800279e:	33d0      	adds	r3, #208	@ 0xd0
 80027a0:	429c      	cmp	r4, r3
 80027a2:	d105      	bne.n	80027b0 <std+0x54>
 80027a4:	f104 0058 	add.w	r0, r4, #88	@ 0x58
 80027a8:	e8bd 4010 	ldmia.w	sp!, {r4, lr}
 80027ac:	f000 b966 	b.w	8002a7c <__retarget_lock_init_recursive>
 80027b0:	bd10      	pop	{r4, pc}
 80027b2:	bf00      	nop
 80027b4:	08002905 	.word	0x08002905
 80027b8:	08002927 	.word	0x08002927
 80027bc:	0800295f 	.word	0x0800295f
 80027c0:	08002983 	.word	0x08002983
 80027c4:	20000164 	.word	0x20000164

080027c8 <stdio_exit_handler>:
 80027c8:	4a02      	ldr	r2, [pc, #8]	@ (80027d4 <stdio_exit_handler+0xc>)
 80027ca:	4903      	ldr	r1, [pc, #12]	@ (80027d8 <stdio_exit_handler+0x10>)
 80027cc:	4803      	ldr	r0, [pc, #12]	@ (80027dc <stdio_exit_handler+0x14>)
 80027ce:	f000 b869 	b.w	80028a4 <_fwalk_sglue>
 80027d2:	bf00      	nop
 80027d4:	2000000c 	.word	0x2000000c
 80027d8:	08003319 	.word	0x08003319
 80027dc:	2000001c 	.word	0x2000001c

080027e0 <cleanup_stdio>:
 80027e0:	6841      	ldr	r1, [r0, #4]
 80027e2:	4b0c      	ldr	r3, [pc, #48]	@ (8002814 <cleanup_stdio+0x34>)
 80027e4:	4299      	cmp	r1, r3
 80027e6:	b510      	push	{r4, lr}
 80027e8:	4604      	mov	r4, r0
 80027ea:	d001      	beq.n	80027f0 <cleanup_stdio+0x10>
 80027ec:	f000 fd94 	bl	8003318 <_fflush_r>
 80027f0:	68a1      	ldr	r1, [r4, #8]
 80027f2:	4b09      	ldr	r3, [pc, #36]	@ (8002818 <cleanup_stdio+0x38>)
 80027f4:	4299      	cmp	r1, r3
 80027f6:	d002      	beq.n	80027fe <cleanup_stdio+0x1e>
 80027f8:	4620      	mov	r0, r4
 80027fa:	f000 fd8d 	bl	8003318 <_fflush_r>
 80027fe:	68e1      	ldr	r1, [r4, #12]
 8002800:	4b06      	ldr	r3, [pc, #24]	@ (800281c <cleanup_stdio+0x3c>)
 8002802:	4299      	cmp	r1, r3
 8002804:	d004      	beq.n	8002810 <cleanup_stdio+0x30>
 8002806:	4620      	mov	r0, r4
 8002808:	e8bd 4010 	ldmia.w	sp!, {r4, lr}
 800280c:	f000 bd84 	b.w	8003318 <_fflush_r>
 8002810:	bd10      	pop	{r4, pc}
 8002812:	bf00      	nop
 8002814:	20000164 	.word	0x20000164
 8002818:	200001cc 	.word	0x200001cc
 800281c:	20000234 	.word	0x20000234

08002820 <global_stdio_init.part.0>:
 8002820:	b510      	push	{r4, lr}
 8002822:	4b0b      	ldr	r3, [pc, #44]	@ (8002850 <global_stdio_init.part.0+0x30>)
 8002824:	4c0b      	ldr	r4, [pc, #44]	@ (8002854 <global_stdio_init.part.0+0x34>)
 8002826:	4a0c      	ldr	r2, [pc, #48]	@ (8002858 <global_stdio_init.part.0+0x38>)
 8002828:	601a      	str	r2, [r3, #0]
 800282a:	4620      	mov	r0, r4
 800282c:	2200      	movs	r2, #0
 800282e:	2104      	movs	r1, #4
 8002830:	f7ff ff94 	bl	800275c <std>
 8002834:	f104 0068 	add.w	r0, r4, #104	@ 0x68
 8002838:	2201      	movs	r2, #1
 800283a:	2109      	movs	r1, #9
 800283c:	f7ff ff8e 	bl	800275c <std>
 8002840:	f104 00d0 	add.w	r0, r4, #208	@ 0xd0
 8002844:	2202      	movs	r2, #2
 8002846:	e8bd 4010 	ldmia.w	sp!, {r4, lr}
 800284a:	2112      	movs	r1, #18
 800284c:	f7ff bf86 	b.w	800275c <std>
 8002850:	2000029c 	.word	0x2000029c
 8002854:	20000164 	.word	0x20000164
 8002858:	080027c9 	.word	0x080027c9

0800285c <__sfp_lock_acquire>:
 800285c:	4801      	ldr	r0, [pc, #4]	@ (8002864 <__sfp_lock_acquire+0x8>)
 800285e:	f000 b90e 	b.w	8002a7e <__retarget_lock_acquire_recursive>
 8002862:	bf00      	nop
 8002864:	200002a5 	.word	0x200002a5

08002868 <__sfp_lock_release>:
 8002868:	4801      	ldr	r0, [pc, #4]	@ (8002870 <__sfp_lock_release+0x8>)
 800286a:	f000 b909 	b.w	8002a80 <__retarget_lock_release_recursive>
 800286e:	bf00      	nop
 8002870:	200002a5 	.word	0x200002a5

08002874 <__sinit>:
 8002874:	b510      	push	{r4, lr}
 8002876:	4604      	mov	r4, r0
 8002878:	f7ff fff0 	bl	800285c <__sfp_lock_acquire>
 800287c:	6a23      	ldr	r3, [r4, #32]
 800287e:	b11b      	cbz	r3, 8002888 <__sinit+0x14>
 8002880:	e8bd 4010 	ldmia.w	sp!, {r4, lr}
 8002884:	f7ff bff0 	b.w	8002868 <__sfp_lock_release>
 8002888:	4b04      	ldr	r3, [pc, #16]	@ (800289c <__sinit+0x28>)
 800288a:	6223      	str	r3, [r4, #32]
 800288c:	4b04      	ldr	r3, [pc, #16]	@ (80028a0 <__sinit+0x2c>)
 800288e:	681b      	ldr	r3, [r3, #0]
 8002890:	2b00      	cmp	r3, #0
 8002892:	d1f5      	bne.n	8002880 <__sinit+0xc>
 8002894:	f7ff ffc4 	bl	8002820 <global_stdio_init.part.0>
 8002898:	e7f2      	b.n	8002880 <__sinit+0xc>
 800289a:	bf00      	nop
 800289c:	080027e1 	.word	0x080027e1
 80028a0:	2000029c 	.word	0x2000029c

080028a4 <_fwalk_sglue>:
 80028a4:	e92d 43f8 	stmdb	sp!, {r3, r4, r5, r6, r7, r8, r9, lr}
 80028a8:	4607      	mov	r7, r0
 80028aa:	4688      	mov	r8, r1
 80028ac:	4614      	mov	r4, r2
 80028ae:	2600      	movs	r6, #0
 80028b0:	e9d4 9501 	ldrd	r9, r5, [r4, #4]
 80028b4:	f1b9 0901 	subs.w	r9, r9, #1
 80028b8:	d505      	bpl.n	80028c6 <_fwalk_sglue+0x22>
 80028ba:	6824      	ldr	r4, [r4, #0]
 80028bc:	2c00      	cmp	r4, #0
 80028be:	d1f7      	bne.n	80028b0 <_fwalk_sglue+0xc>
 80028c0:	4630      	mov	r0, r6
 80028c2:	e8bd 83f8 	ldmia.w	sp!, {r3, r4, r5, r6, r7, r8, r9, pc}
 80028c6:	89ab      	ldrh	r3, [r5, #12]
 80028c8:	2b01      	cmp	r3, #1
 80028ca:	d907      	bls.n	80028dc <_fwalk_sglue+0x38>
 80028cc:	f9b5 300e 	ldrsh.w	r3, [r5, #14]
 80028d0:	3301      	adds	r3, #1
 80028d2:	d003      	beq.n	80028dc <_fwalk_sglue+0x38>
 80028d4:	4629      	mov	r1, r5
 80028d6:	4638      	mov	r0, r7
 80028d8:	47c0      	blx	r8
 80028da:	4306      	orrs	r6, r0
 80028dc:	3568      	adds	r5, #104	@ 0x68
 80028de:	e7e9      	b.n	80028b4 <_fwalk_sglue+0x10>

080028e0 <iprintf>:
 80028e0:	b40f      	push	{r0, r1, r2, r3}
 80028e2:	b507      	push	{r0, r1, r2, lr}
 80028e4:	4906      	ldr	r1, [pc, #24]	@ (8002900 <iprintf+0x20>)
 80028e6:	ab04      	add	r3, sp, #16
 80028e8:	6808      	ldr	r0, [r1, #0]
 80028ea:	f853 2b04 	ldr.w	r2, [r3], #4
 80028ee:	6881      	ldr	r1, [r0, #8]
 80028f0:	9301      	str	r3, [sp, #4]
 80028f2:	f000 f9e9 	bl	8002cc8 <_vfiprintf_r>
 80028f6:	b003      	add	sp, #12
 80028f8:	f85d eb04 	ldr.w	lr, [sp], #4
 80028fc:	b004      	add	sp, #16
 80028fe:	4770      	bx	lr
 8002900:	20000018 	.word	0x20000018

08002904 <__sread>:
 8002904:	b510      	push	{r4, lr}
 8002906:	460c      	mov	r4, r1
 8002908:	f9b1 100e 	ldrsh.w	r1, [r1, #14]
 800290c:	f000 f868 	bl	80029e0 <_read_r>
 8002910:	2800      	cmp	r0, #0
 8002912:	bfab      	itete	ge
 8002914:	6d63      	ldrge	r3, [r4, #84]	@ 0x54
 8002916:	89a3      	ldrhlt	r3, [r4, #12]
 8002918:	181b      	addge	r3, r3, r0
 800291a:	f423 5380 	biclt.w	r3, r3, #4096	@ 0x1000
 800291e:	bfac      	ite	ge
 8002920:	6563      	strge	r3, [r4, #84]	@ 0x54
 8002922:	81a3      	strhlt	r3, [r4, #12]
 8002924:	bd10      	pop	{r4, pc}

08002926 <__swrite>:
 8002926:	e92d 41f0 	stmdb	sp!, {r4, r5, r6, r7, r8, lr}
 800292a:	461f      	mov	r7, r3
 800292c:	898b      	ldrh	r3, [r1, #12]
 800292e:	05db      	lsls	r3, r3, #23
 8002930:	4605      	mov	r5, r0
 8002932:	460c      	mov	r4, r1
 8002934:	4616      	mov	r6, r2
 8002936:	d505      	bpl.n	8002944 <__swrite+0x1e>
 8002938:	f9b1 100e 	ldrsh.w	r1, [r1, #14]
 800293c:	2302      	movs	r3, #2
 800293e:	2200      	movs	r2, #0
 8002940:	f000 f83c 	bl	80029bc <_lseek_r>
 8002944:	89a3      	ldrh	r3, [r4, #12]
 8002946:	f9b4 100e 	ldrsh.w	r1, [r4, #14]
 800294a:	f423 5380 	bic.w	r3, r3, #4096	@ 0x1000
 800294e:	81a3      	strh	r3, [r4, #12]
 8002950:	4632      	mov	r2, r6
 8002952:	463b      	mov	r3, r7
 8002954:	4628      	mov	r0, r5
 8002956:	e8bd 41f0 	ldmia.w	sp!, {r4, r5, r6, r7, r8, lr}
 800295a:	f000 b853 	b.w	8002a04 <_write_r>

0800295e <__sseek>:
 800295e:	b510      	push	{r4, lr}
 8002960:	460c      	mov	r4, r1
 8002962:	f9b1 100e 	ldrsh.w	r1, [r1, #14]
 8002966:	f000 f829 	bl	80029bc <_lseek_r>
 800296a:	1c43      	adds	r3, r0, #1
 800296c:	89a3      	ldrh	r3, [r4, #12]
 800296e:	bf15      	itete	ne
 8002970:	6560      	strne	r0, [r4, #84]	@ 0x54
 8002972:	f423 5380 	biceq.w	r3, r3, #4096	@ 0x1000
 8002976:	f443 5380 	orrne.w	r3, r3, #4096	@ 0x1000
 800297a:	81a3      	strheq	r3, [r4, #12]
 800297c:	bf18      	it	ne
 800297e:	81a3      	strhne	r3, [r4, #12]
 8002980:	bd10      	pop	{r4, pc}

08002982 <__sclose>:
 8002982:	f9b1 100e 	ldrsh.w	r1, [r1, #14]
 8002986:	f000 b809 	b.w	800299c <_close_r>

0800298a <memset>:
 800298a:	4402      	add	r2, r0
 800298c:	4603      	mov	r3, r0
 800298e:	4293      	cmp	r3, r2
 8002990:	d100      	bne.n	8002994 <memset+0xa>
 8002992:	4770      	bx	lr
 8002994:	f803 1b01 	strb.w	r1, [r3], #1
 8002998:	e7f9      	b.n	800298e <memset+0x4>
	...

0800299c <_close_r>:
 800299c:	b538      	push	{r3, r4, r5, lr}
 800299e:	4d06      	ldr	r5, [pc, #24]	@ (80029b8 <_close_r+0x1c>)
 80029a0:	2300      	movs	r3, #0
 80029a2:	4604      	mov	r4, r0
 80029a4:	4608      	mov	r0, r1
 80029a6:	602b      	str	r3, [r5, #0]
 80029a8:	f7fe fc8e 	bl	80012c8 <_close>
 80029ac:	1c43      	adds	r3, r0, #1
 80029ae:	d102      	bne.n	80029b6 <_close_r+0x1a>
 80029b0:	682b      	ldr	r3, [r5, #0]
 80029b2:	b103      	cbz	r3, 80029b6 <_close_r+0x1a>
 80029b4:	6023      	str	r3, [r4, #0]
 80029b6:	bd38      	pop	{r3, r4, r5, pc}
 80029b8:	200002a0 	.word	0x200002a0

080029bc <_lseek_r>:
 80029bc:	b538      	push	{r3, r4, r5, lr}
 80029be:	4d07      	ldr	r5, [pc, #28]	@ (80029dc <_lseek_r+0x20>)
 80029c0:	4604      	mov	r4, r0
 80029c2:	4608      	mov	r0, r1
 80029c4:	4611      	mov	r1, r2
 80029c6:	2200      	movs	r2, #0
 80029c8:	602a      	str	r2, [r5, #0]
 80029ca:	461a      	mov	r2, r3
 80029cc:	f7fe fc86 	bl	80012dc <_lseek>
 80029d0:	1c43      	adds	r3, r0, #1
 80029d2:	d102      	bne.n	80029da <_lseek_r+0x1e>
 80029d4:	682b      	ldr	r3, [r5, #0]
 80029d6:	b103      	cbz	r3, 80029da <_lseek_r+0x1e>
 80029d8:	6023      	str	r3, [r4, #0]
 80029da:	bd38      	pop	{r3, r4, r5, pc}
 80029dc:	200002a0 	.word	0x200002a0

080029e0 <_read_r>:
 80029e0:	b538      	push	{r3, r4, r5, lr}
 80029e2:	4d07      	ldr	r5, [pc, #28]	@ (8002a00 <_read_r+0x20>)
 80029e4:	4604      	mov	r4, r0
 80029e6:	4608      	mov	r0, r1
 80029e8:	4611      	mov	r1, r2
 80029ea:	2200      	movs	r2, #0
 80029ec:	602a      	str	r2, [r5, #0]
 80029ee:	461a      	mov	r2, r3
 80029f0:	f7fe fc4e 	bl	8001290 <_read>
 80029f4:	1c43      	adds	r3, r0, #1
 80029f6:	d102      	bne.n	80029fe <_read_r+0x1e>
 80029f8:	682b      	ldr	r3, [r5, #0]
 80029fa:	b103      	cbz	r3, 80029fe <_read_r+0x1e>
 80029fc:	6023      	str	r3, [r4, #0]
 80029fe:	bd38      	pop	{r3, r4, r5, pc}
 8002a00:	200002a0 	.word	0x200002a0

08002a04 <_write_r>:
 8002a04:	b538      	push	{r3, r4, r5, lr}
 8002a06:	4d07      	ldr	r5, [pc, #28]	@ (8002a24 <_write_r+0x20>)
 8002a08:	4604      	mov	r4, r0
 8002a0a:	4608      	mov	r0, r1
 8002a0c:	4611      	mov	r1, r2
 8002a0e:	2200      	movs	r2, #0
 8002a10:	602a      	str	r2, [r5, #0]
 8002a12:	461a      	mov	r2, r3
 8002a14:	f7fe fc4a 	bl	80012ac <_write>
 8002a18:	1c43      	adds	r3, r0, #1
 8002a1a:	d102      	bne.n	8002a22 <_write_r+0x1e>
 8002a1c:	682b      	ldr	r3, [r5, #0]
 8002a1e:	b103      	cbz	r3, 8002a22 <_write_r+0x1e>
 8002a20:	6023      	str	r3, [r4, #0]
 8002a22:	bd38      	pop	{r3, r4, r5, pc}
 8002a24:	200002a0 	.word	0x200002a0

08002a28 <__errno>:
 8002a28:	4b01      	ldr	r3, [pc, #4]	@ (8002a30 <__errno+0x8>)
 8002a2a:	6818      	ldr	r0, [r3, #0]
 8002a2c:	4770      	bx	lr
 8002a2e:	bf00      	nop
 8002a30:	20000018 	.word	0x20000018

08002a34 <__libc_init_array>:
 8002a34:	b570      	push	{r4, r5, r6, lr}
 8002a36:	4d0d      	ldr	r5, [pc, #52]	@ (8002a6c <__libc_init_array+0x38>)
 8002a38:	4c0d      	ldr	r4, [pc, #52]	@ (8002a70 <__libc_init_array+0x3c>)
 8002a3a:	1b64      	subs	r4, r4, r5
 8002a3c:	10a4      	asrs	r4, r4, #2
 8002a3e:	2600      	movs	r6, #0
 8002a40:	42a6      	cmp	r6, r4
 8002a42:	d109      	bne.n	8002a58 <__libc_init_array+0x24>
 8002a44:	4d0b      	ldr	r5, [pc, #44]	@ (8002a74 <__libc_init_array+0x40>)
 8002a46:	4c0c      	ldr	r4, [pc, #48]	@ (8002a78 <__libc_init_array+0x44>)
 8002a48:	f000 fdb6 	bl	80035b8 <_init>
 8002a4c:	1b64      	subs	r4, r4, r5
 8002a4e:	10a4      	asrs	r4, r4, #2
 8002a50:	2600      	movs	r6, #0
 8002a52:	42a6      	cmp	r6, r4
 8002a54:	d105      	bne.n	8002a62 <__libc_init_array+0x2e>
 8002a56:	bd70      	pop	{r4, r5, r6, pc}
 8002a58:	f855 3b04 	ldr.w	r3, [r5], #4
 8002a5c:	4798      	blx	r3
 8002a5e:	3601      	adds	r6, #1
 8002a60:	e7ee      	b.n	8002a40 <__libc_init_array+0xc>
 8002a62:	f855 3b04 	ldr.w	r3, [r5], #4
 8002a66:	4798      	blx	r3
 8002a68:	3601      	adds	r6, #1
 8002a6a:	e7f2      	b.n	8002a52 <__libc_init_array+0x1e>
 8002a6c:	08003654 	.word	0x08003654
 8002a70:	08003654 	.word	0x08003654
 8002a74:	08003654 	.word	0x08003654
 8002a78:	08003658 	.word	0x08003658

08002a7c <__retarget_lock_init_recursive>:
 8002a7c:	4770      	bx	lr

08002a7e <__retarget_lock_acquire_recursive>:
 8002a7e:	4770      	bx	lr

08002a80 <__retarget_lock_release_recursive>:
 8002a80:	4770      	bx	lr
	...

08002a84 <_free_r>:
 8002a84:	b538      	push	{r3, r4, r5, lr}
 8002a86:	4605      	mov	r5, r0
 8002a88:	2900      	cmp	r1, #0
 8002a8a:	d041      	beq.n	8002b10 <_free_r+0x8c>
 8002a8c:	f851 3c04 	ldr.w	r3, [r1, #-4]
 8002a90:	1f0c      	subs	r4, r1, #4
 8002a92:	2b00      	cmp	r3, #0
 8002a94:	bfb8      	it	lt
 8002a96:	18e4      	addlt	r4, r4, r3
 8002a98:	f000 f8e0 	bl	8002c5c <__malloc_lock>
 8002a9c:	4a1d      	ldr	r2, [pc, #116]	@ (8002b14 <_free_r+0x90>)
 8002a9e:	6813      	ldr	r3, [r2, #0]
 8002aa0:	b933      	cbnz	r3, 8002ab0 <_free_r+0x2c>
 8002aa2:	6063      	str	r3, [r4, #4]
 8002aa4:	6014      	str	r4, [r2, #0]
 8002aa6:	4628      	mov	r0, r5
 8002aa8:	e8bd 4038 	ldmia.w	sp!, {r3, r4, r5, lr}
 8002aac:	f000 b8dc 	b.w	8002c68 <__malloc_unlock>
 8002ab0:	42a3      	cmp	r3, r4
 8002ab2:	d908      	bls.n	8002ac6 <_free_r+0x42>
 8002ab4:	6820      	ldr	r0, [r4, #0]
 8002ab6:	1821      	adds	r1, r4, r0
 8002ab8:	428b      	cmp	r3, r1
 8002aba:	bf01      	itttt	eq
 8002abc:	6819      	ldreq	r1, [r3, #0]
 8002abe:	685b      	ldreq	r3, [r3, #4]
 8002ac0:	1809      	addeq	r1, r1, r0
 8002ac2:	6021      	streq	r1, [r4, #0]
 8002ac4:	e7ed      	b.n	8002aa2 <_free_r+0x1e>
 8002ac6:	461a      	mov	r2, r3
 8002ac8:	685b      	ldr	r3, [r3, #4]
 8002aca:	b10b      	cbz	r3, 8002ad0 <_free_r+0x4c>
 8002acc:	42a3      	cmp	r3, r4
 8002ace:	d9fa      	bls.n	8002ac6 <_free_r+0x42>
 8002ad0:	6811      	ldr	r1, [r2, #0]
 8002ad2:	1850      	adds	r0, r2, r1
 8002ad4:	42a0      	cmp	r0, r4
 8002ad6:	d10b      	bne.n	8002af0 <_free_r+0x6c>
 8002ad8:	6820      	ldr	r0, [r4, #0]
 8002ada:	4401      	add	r1, r0
 8002adc:	1850      	adds	r0, r2, r1
 8002ade:	4283      	cmp	r3, r0
 8002ae0:	6011      	str	r1, [r2, #0]
 8002ae2:	d1e0      	bne.n	8002aa6 <_free_r+0x22>
 8002ae4:	6818      	ldr	r0, [r3, #0]
 8002ae6:	685b      	ldr	r3, [r3, #4]
 8002ae8:	6053      	str	r3, [r2, #4]
 8002aea:	4408      	add	r0, r1
 8002aec:	6010      	str	r0, [r2, #0]
 8002aee:	e7da      	b.n	8002aa6 <_free_r+0x22>
 8002af0:	d902      	bls.n	8002af8 <_free_r+0x74>
 8002af2:	230c      	movs	r3, #12
 8002af4:	602b      	str	r3, [r5, #0]
 8002af6:	e7d6      	b.n	8002aa6 <_free_r+0x22>
 8002af8:	6820      	ldr	r0, [r4, #0]
 8002afa:	1821      	adds	r1, r4, r0
 8002afc:	428b      	cmp	r3, r1
 8002afe:	bf04      	itt	eq
 8002b00:	6819      	ldreq	r1, [r3, #0]
 8002b02:	685b      	ldreq	r3, [r3, #4]
 8002b04:	6063      	str	r3, [r4, #4]
 8002b06:	bf04      	itt	eq
 8002b08:	1809      	addeq	r1, r1, r0
 8002b0a:	6021      	streq	r1, [r4, #0]
 8002b0c:	6054      	str	r4, [r2, #4]
 8002b0e:	e7ca      	b.n	8002aa6 <_free_r+0x22>
 8002b10:	bd38      	pop	{r3, r4, r5, pc}
 8002b12:	bf00      	nop
 8002b14:	200002ac 	.word	0x200002ac

08002b18 <sbrk_aligned>:
 8002b18:	b570      	push	{r4, r5, r6, lr}
 8002b1a:	4e0f      	ldr	r6, [pc, #60]	@ (8002b58 <sbrk_aligned+0x40>)
 8002b1c:	460c      	mov	r4, r1
 8002b1e:	6831      	ldr	r1, [r6, #0]
 8002b20:	4605      	mov	r5, r0
 8002b22:	b911      	cbnz	r1, 8002b2a <sbrk_aligned+0x12>
 8002b24:	f000 fcb4 	bl	8003490 <_sbrk_r>
 8002b28:	6030      	str	r0, [r6, #0]
 8002b2a:	4621      	mov	r1, r4
 8002b2c:	4628      	mov	r0, r5
 8002b2e:	f000 fcaf 	bl	8003490 <_sbrk_r>
 8002b32:	1c43      	adds	r3, r0, #1
 8002b34:	d103      	bne.n	8002b3e <sbrk_aligned+0x26>
 8002b36:	f04f 34ff 	mov.w	r4, #4294967295
 8002b3a:	4620      	mov	r0, r4
 8002b3c:	bd70      	pop	{r4, r5, r6, pc}
 8002b3e:	1cc4      	adds	r4, r0, #3
 8002b40:	f024 0403 	bic.w	r4, r4, #3
 8002b44:	42a0      	cmp	r0, r4
 8002b46:	d0f8      	beq.n	8002b3a <sbrk_aligned+0x22>
 8002b48:	1a21      	subs	r1, r4, r0
 8002b4a:	4628      	mov	r0, r5
 8002b4c:	f000 fca0 	bl	8003490 <_sbrk_r>
 8002b50:	3001      	adds	r0, #1
 8002b52:	d1f2      	bne.n	8002b3a <sbrk_aligned+0x22>
 8002b54:	e7ef      	b.n	8002b36 <sbrk_aligned+0x1e>
 8002b56:	bf00      	nop
 8002b58:	200002a8 	.word	0x200002a8

08002b5c <_malloc_r>:
 8002b5c:	e92d 43f8 	stmdb	sp!, {r3, r4, r5, r6, r7, r8, r9, lr}
 8002b60:	1ccd      	adds	r5, r1, #3
 8002b62:	f025 0503 	bic.w	r5, r5, #3
 8002b66:	3508      	adds	r5, #8
 8002b68:	2d0c      	cmp	r5, #12
 8002b6a:	bf38      	it	cc
 8002b6c:	250c      	movcc	r5, #12
 8002b6e:	2d00      	cmp	r5, #0
 8002b70:	4606      	mov	r6, r0
 8002b72:	db01      	blt.n	8002b78 <_malloc_r+0x1c>
 8002b74:	42a9      	cmp	r1, r5
 8002b76:	d904      	bls.n	8002b82 <_malloc_r+0x26>
 8002b78:	230c      	movs	r3, #12
 8002b7a:	6033      	str	r3, [r6, #0]
 8002b7c:	2000      	movs	r0, #0
 8002b7e:	e8bd 83f8 	ldmia.w	sp!, {r3, r4, r5, r6, r7, r8, r9, pc}
 8002b82:	f8df 80d4 	ldr.w	r8, [pc, #212]	@ 8002c58 <_malloc_r+0xfc>
 8002b86:	f000 f869 	bl	8002c5c <__malloc_lock>
 8002b8a:	f8d8 3000 	ldr.w	r3, [r8]
 8002b8e:	461c      	mov	r4, r3
 8002b90:	bb44      	cbnz	r4, 8002be4 <_malloc_r+0x88>
 8002b92:	4629      	mov	r1, r5
 8002b94:	4630      	mov	r0, r6
 8002b96:	f7ff ffbf 	bl	8002b18 <sbrk_aligned>
 8002b9a:	1c43      	adds	r3, r0, #1
 8002b9c:	4604      	mov	r4, r0
 8002b9e:	d158      	bne.n	8002c52 <_malloc_r+0xf6>
 8002ba0:	f8d8 4000 	ldr.w	r4, [r8]
 8002ba4:	4627      	mov	r7, r4
 8002ba6:	2f00      	cmp	r7, #0
 8002ba8:	d143      	bne.n	8002c32 <_malloc_r+0xd6>
 8002baa:	2c00      	cmp	r4, #0
 8002bac:	d04b      	beq.n	8002c46 <_malloc_r+0xea>
 8002bae:	6823      	ldr	r3, [r4, #0]
 8002bb0:	4639      	mov	r1, r7
 8002bb2:	4630      	mov	r0, r6
 8002bb4:	eb04 0903 	add.w	r9, r4, r3
 8002bb8:	f000 fc6a 	bl	8003490 <_sbrk_r>
 8002bbc:	4581      	cmp	r9, r0
 8002bbe:	d142      	bne.n	8002c46 <_malloc_r+0xea>
 8002bc0:	6821      	ldr	r1, [r4, #0]
 8002bc2:	1a6d      	subs	r5, r5, r1
 8002bc4:	4629      	mov	r1, r5
 8002bc6:	4630      	mov	r0, r6
 8002bc8:	f7ff ffa6 	bl	8002b18 <sbrk_aligned>
 8002bcc:	3001      	adds	r0, #1
 8002bce:	d03a      	beq.n	8002c46 <_malloc_r+0xea>
 8002bd0:	6823      	ldr	r3, [r4, #0]
 8002bd2:	442b      	add	r3, r5
 8002bd4:	6023      	str	r3, [r4, #0]
 8002bd6:	f8d8 3000 	ldr.w	r3, [r8]
 8002bda:	685a      	ldr	r2, [r3, #4]
 8002bdc:	bb62      	cbnz	r2, 8002c38 <_malloc_r+0xdc>
 8002bde:	f8c8 7000 	str.w	r7, [r8]
 8002be2:	e00f      	b.n	8002c04 <_malloc_r+0xa8>
 8002be4:	6822      	ldr	r2, [r4, #0]
 8002be6:	1b52      	subs	r2, r2, r5
 8002be8:	d420      	bmi.n	8002c2c <_malloc_r+0xd0>
 8002bea:	2a0b      	cmp	r2, #11
 8002bec:	d917      	bls.n	8002c1e <_malloc_r+0xc2>
 8002bee:	1961      	adds	r1, r4, r5
 8002bf0:	42a3      	cmp	r3, r4
 8002bf2:	6025      	str	r5, [r4, #0]
 8002bf4:	bf18      	it	ne
 8002bf6:	6059      	strne	r1, [r3, #4]
 8002bf8:	6863      	ldr	r3, [r4, #4]
 8002bfa:	bf08      	it	eq
 8002bfc:	f8c8 1000 	streq.w	r1, [r8]
 8002c00:	5162      	str	r2, [r4, r5]
 8002c02:	604b      	str	r3, [r1, #4]
 8002c04:	4630      	mov	r0, r6
 8002c06:	f000 f82f 	bl	8002c68 <__malloc_unlock>
 8002c0a:	f104 000b 	add.w	r0, r4, #11
 8002c0e:	1d23      	adds	r3, r4, #4
 8002c10:	f020 0007 	bic.w	r0, r0, #7
 8002c14:	1ac2      	subs	r2, r0, r3
 8002c16:	bf1c      	itt	ne
 8002c18:	1a1b      	subne	r3, r3, r0
 8002c1a:	50a3      	strne	r3, [r4, r2]
 8002c1c:	e7af      	b.n	8002b7e <_malloc_r+0x22>
 8002c1e:	6862      	ldr	r2, [r4, #4]
 8002c20:	42a3      	cmp	r3, r4
 8002c22:	bf0c      	ite	eq
 8002c24:	f8c8 2000 	streq.w	r2, [r8]
 8002c28:	605a      	strne	r2, [r3, #4]
 8002c2a:	e7eb      	b.n	8002c04 <_malloc_r+0xa8>
 8002c2c:	4623      	mov	r3, r4
 8002c2e:	6864      	ldr	r4, [r4, #4]
 8002c30:	e7ae      	b.n	8002b90 <_malloc_r+0x34>
 8002c32:	463c      	mov	r4, r7
 8002c34:	687f      	ldr	r7, [r7, #4]
 8002c36:	e7b6      	b.n	8002ba6 <_malloc_r+0x4a>
 8002c38:	461a      	mov	r2, r3
 8002c3a:	685b      	ldr	r3, [r3, #4]
 8002c3c:	42a3      	cmp	r3, r4
 8002c3e:	d1fb      	bne.n	8002c38 <_malloc_r+0xdc>
 8002c40:	2300      	movs	r3, #0
 8002c42:	6053      	str	r3, [r2, #4]
 8002c44:	e7de      	b.n	8002c04 <_malloc_r+0xa8>
 8002c46:	230c      	movs	r3, #12
 8002c48:	6033      	str	r3, [r6, #0]
 8002c4a:	4630      	mov	r0, r6
 8002c4c:	f000 f80c 	bl	8002c68 <__malloc_unlock>
 8002c50:	e794      	b.n	8002b7c <_malloc_r+0x20>
 8002c52:	6005      	str	r5, [r0, #0]
 8002c54:	e7d6      	b.n	8002c04 <_malloc_r+0xa8>
 8002c56:	bf00      	nop
 8002c58:	200002ac 	.word	0x200002ac

08002c5c <__malloc_lock>:
 8002c5c:	4801      	ldr	r0, [pc, #4]	@ (8002c64 <__malloc_lock+0x8>)
 8002c5e:	f7ff bf0e 	b.w	8002a7e <__retarget_lock_acquire_recursive>
 8002c62:	bf00      	nop
 8002c64:	200002a4 	.word	0x200002a4

08002c68 <__malloc_unlock>:
 8002c68:	4801      	ldr	r0, [pc, #4]	@ (8002c70 <__malloc_unlock+0x8>)
 8002c6a:	f7ff bf09 	b.w	8002a80 <__retarget_lock_release_recursive>
 8002c6e:	bf00      	nop
 8002c70:	200002a4 	.word	0x200002a4

08002c74 <__sfputc_r>:
 8002c74:	6893      	ldr	r3, [r2, #8]
 8002c76:	3b01      	subs	r3, #1
 8002c78:	2b00      	cmp	r3, #0
 8002c7a:	b410      	push	{r4}
 8002c7c:	6093      	str	r3, [r2, #8]
 8002c7e:	da08      	bge.n	8002c92 <__sfputc_r+0x1e>
 8002c80:	6994      	ldr	r4, [r2, #24]
 8002c82:	42a3      	cmp	r3, r4
 8002c84:	db01      	blt.n	8002c8a <__sfputc_r+0x16>
 8002c86:	290a      	cmp	r1, #10
 8002c88:	d103      	bne.n	8002c92 <__sfputc_r+0x1e>
 8002c8a:	f85d 4b04 	ldr.w	r4, [sp], #4
 8002c8e:	f000 bb6b 	b.w	8003368 <__swbuf_r>
 8002c92:	6813      	ldr	r3, [r2, #0]
 8002c94:	1c58      	adds	r0, r3, #1
 8002c96:	6010      	str	r0, [r2, #0]
 8002c98:	7019      	strb	r1, [r3, #0]
 8002c9a:	4608      	mov	r0, r1
 8002c9c:	f85d 4b04 	ldr.w	r4, [sp], #4
 8002ca0:	4770      	bx	lr

08002ca2 <__sfputs_r>:
 8002ca2:	b5f8      	push	{r3, r4, r5, r6, r7, lr}
 8002ca4:	4606      	mov	r6, r0
 8002ca6:	460f      	mov	r7, r1
 8002ca8:	4614      	mov	r4, r2
 8002caa:	18d5      	adds	r5, r2, r3
 8002cac:	42ac      	cmp	r4, r5
 8002cae:	d101      	bne.n	8002cb4 <__sfputs_r+0x12>
 8002cb0:	2000      	movs	r0, #0
 8002cb2:	e007      	b.n	8002cc4 <__sfputs_r+0x22>
 8002cb4:	f814 1b01 	ldrb.w	r1, [r4], #1
 8002cb8:	463a      	mov	r2, r7
 8002cba:	4630      	mov	r0, r6
 8002cbc:	f7ff ffda 	bl	8002c74 <__sfputc_r>
 8002cc0:	1c43      	adds	r3, r0, #1
 8002cc2:	d1f3      	bne.n	8002cac <__sfputs_r+0xa>
 8002cc4:	bdf8      	pop	{r3, r4, r5, r6, r7, pc}
	...

08002cc8 <_vfiprintf_r>:
 8002cc8:	e92d 4ff0 	stmdb	sp!, {r4, r5, r6, r7, r8, r9, sl, fp, lr}
 8002ccc:	460d      	mov	r5, r1
 8002cce:	b09d      	sub	sp, #116	@ 0x74
 8002cd0:	4614      	mov	r4, r2
 8002cd2:	4698      	mov	r8, r3
 8002cd4:	4606      	mov	r6, r0
 8002cd6:	b118      	cbz	r0, 8002ce0 <_vfiprintf_r+0x18>
 8002cd8:	6a03      	ldr	r3, [r0, #32]
 8002cda:	b90b      	cbnz	r3, 8002ce0 <_vfiprintf_r+0x18>
 8002cdc:	f7ff fdca 	bl	8002874 <__sinit>
 8002ce0:	6e6b      	ldr	r3, [r5, #100]	@ 0x64
 8002ce2:	07d9      	lsls	r1, r3, #31
 8002ce4:	d405      	bmi.n	8002cf2 <_vfiprintf_r+0x2a>
 8002ce6:	89ab      	ldrh	r3, [r5, #12]
 8002ce8:	059a      	lsls	r2, r3, #22
 8002cea:	d402      	bmi.n	8002cf2 <_vfiprintf_r+0x2a>
 8002cec:	6da8      	ldr	r0, [r5, #88]	@ 0x58
 8002cee:	f7ff fec6 	bl	8002a7e <__retarget_lock_acquire_recursive>
 8002cf2:	89ab      	ldrh	r3, [r5, #12]
 8002cf4:	071b      	lsls	r3, r3, #28
 8002cf6:	d501      	bpl.n	8002cfc <_vfiprintf_r+0x34>
 8002cf8:	692b      	ldr	r3, [r5, #16]
 8002cfa:	b99b      	cbnz	r3, 8002d24 <_vfiprintf_r+0x5c>
 8002cfc:	4629      	mov	r1, r5
 8002cfe:	4630      	mov	r0, r6
 8002d00:	f000 fb70 	bl	80033e4 <__swsetup_r>
 8002d04:	b170      	cbz	r0, 8002d24 <_vfiprintf_r+0x5c>
 8002d06:	6e6b      	ldr	r3, [r5, #100]	@ 0x64
 8002d08:	07dc      	lsls	r4, r3, #31
 8002d0a:	d504      	bpl.n	8002d16 <_vfiprintf_r+0x4e>
 8002d0c:	f04f 30ff 	mov.w	r0, #4294967295
 8002d10:	b01d      	add	sp, #116	@ 0x74
 8002d12:	e8bd 8ff0 	ldmia.w	sp!, {r4, r5, r6, r7, r8, r9, sl, fp, pc}
 8002d16:	89ab      	ldrh	r3, [r5, #12]
 8002d18:	0598      	lsls	r0, r3, #22
 8002d1a:	d4f7      	bmi.n	8002d0c <_vfiprintf_r+0x44>
 8002d1c:	6da8      	ldr	r0, [r5, #88]	@ 0x58
 8002d1e:	f7ff feaf 	bl	8002a80 <__retarget_lock_release_recursive>
 8002d22:	e7f3      	b.n	8002d0c <_vfiprintf_r+0x44>
 8002d24:	2300      	movs	r3, #0
 8002d26:	9309      	str	r3, [sp, #36]	@ 0x24
 8002d28:	2320      	movs	r3, #32
 8002d2a:	f88d 3029 	strb.w	r3, [sp, #41]	@ 0x29
 8002d2e:	f8cd 800c 	str.w	r8, [sp, #12]
 8002d32:	2330      	movs	r3, #48	@ 0x30
 8002d34:	f8df 81ac 	ldr.w	r8, [pc, #428]	@ 8002ee4 <_vfiprintf_r+0x21c>
 8002d38:	f88d 302a 	strb.w	r3, [sp, #42]	@ 0x2a
 8002d3c:	f04f 0901 	mov.w	r9, #1
 8002d40:	4623      	mov	r3, r4
 8002d42:	469a      	mov	sl, r3
 8002d44:	f813 2b01 	ldrb.w	r2, [r3], #1
 8002d48:	b10a      	cbz	r2, 8002d4e <_vfiprintf_r+0x86>
 8002d4a:	2a25      	cmp	r2, #37	@ 0x25
 8002d4c:	d1f9      	bne.n	8002d42 <_vfiprintf_r+0x7a>
 8002d4e:	ebba 0b04 	subs.w	fp, sl, r4
 8002d52:	d00b      	beq.n	8002d6c <_vfiprintf_r+0xa4>
 8002d54:	465b      	mov	r3, fp
 8002d56:	4622      	mov	r2, r4
 8002d58:	4629      	mov	r1, r5
 8002d5a:	4630      	mov	r0, r6
 8002d5c:	f7ff ffa1 	bl	8002ca2 <__sfputs_r>
 8002d60:	3001      	adds	r0, #1
 8002d62:	f000 80a7 	beq.w	8002eb4 <_vfiprintf_r+0x1ec>
 8002d66:	9a09      	ldr	r2, [sp, #36]	@ 0x24
 8002d68:	445a      	add	r2, fp
 8002d6a:	9209      	str	r2, [sp, #36]	@ 0x24
 8002d6c:	f89a 3000 	ldrb.w	r3, [sl]
 8002d70:	2b00      	cmp	r3, #0
 8002d72:	f000 809f 	beq.w	8002eb4 <_vfiprintf_r+0x1ec>
 8002d76:	2300      	movs	r3, #0
 8002d78:	f04f 32ff 	mov.w	r2, #4294967295
 8002d7c:	e9cd 2305 	strd	r2, r3, [sp, #20]
 8002d80:	f10a 0a01 	add.w	sl, sl, #1
 8002d84:	9304      	str	r3, [sp, #16]
 8002d86:	9307      	str	r3, [sp, #28]
 8002d88:	f88d 3053 	strb.w	r3, [sp, #83]	@ 0x53
 8002d8c:	931a      	str	r3, [sp, #104]	@ 0x68
 8002d8e:	4654      	mov	r4, sl
 8002d90:	2205      	movs	r2, #5
 8002d92:	f814 1b01 	ldrb.w	r1, [r4], #1
 8002d96:	4853      	ldr	r0, [pc, #332]	@ (8002ee4 <_vfiprintf_r+0x21c>)
 8002d98:	f7fd fa3a 	bl	8000210 <memchr>
 8002d9c:	9a04      	ldr	r2, [sp, #16]
 8002d9e:	b9d8      	cbnz	r0, 8002dd8 <_vfiprintf_r+0x110>
 8002da0:	06d1      	lsls	r1, r2, #27
 8002da2:	bf44      	itt	mi
 8002da4:	2320      	movmi	r3, #32
 8002da6:	f88d 3053 	strbmi.w	r3, [sp, #83]	@ 0x53
 8002daa:	0713      	lsls	r3, r2, #28
 8002dac:	bf44      	itt	mi
 8002dae:	232b      	movmi	r3, #43	@ 0x2b
 8002db0:	f88d 3053 	strbmi.w	r3, [sp, #83]	@ 0x53
 8002db4:	f89a 3000 	ldrb.w	r3, [sl]
 8002db8:	2b2a      	cmp	r3, #42	@ 0x2a
 8002dba:	d015      	beq.n	8002de8 <_vfiprintf_r+0x120>
 8002dbc:	9a07      	ldr	r2, [sp, #28]
 8002dbe:	4654      	mov	r4, sl
 8002dc0:	2000      	movs	r0, #0
 8002dc2:	f04f 0c0a 	mov.w	ip, #10
 8002dc6:	4621      	mov	r1, r4
 8002dc8:	f811 3b01 	ldrb.w	r3, [r1], #1
 8002dcc:	3b30      	subs	r3, #48	@ 0x30
 8002dce:	2b09      	cmp	r3, #9
 8002dd0:	d94b      	bls.n	8002e6a <_vfiprintf_r+0x1a2>
 8002dd2:	b1b0      	cbz	r0, 8002e02 <_vfiprintf_r+0x13a>
 8002dd4:	9207      	str	r2, [sp, #28]
 8002dd6:	e014      	b.n	8002e02 <_vfiprintf_r+0x13a>
 8002dd8:	eba0 0308 	sub.w	r3, r0, r8
 8002ddc:	fa09 f303 	lsl.w	r3, r9, r3
 8002de0:	4313      	orrs	r3, r2
 8002de2:	9304      	str	r3, [sp, #16]
 8002de4:	46a2      	mov	sl, r4
 8002de6:	e7d2      	b.n	8002d8e <_vfiprintf_r+0xc6>
 8002de8:	9b03      	ldr	r3, [sp, #12]
 8002dea:	1d19      	adds	r1, r3, #4
 8002dec:	681b      	ldr	r3, [r3, #0]
 8002dee:	9103      	str	r1, [sp, #12]
 8002df0:	2b00      	cmp	r3, #0
 8002df2:	bfbb      	ittet	lt
 8002df4:	425b      	neglt	r3, r3
 8002df6:	f042 0202 	orrlt.w	r2, r2, #2
 8002dfa:	9307      	strge	r3, [sp, #28]
 8002dfc:	9307      	strlt	r3, [sp, #28]
 8002dfe:	bfb8      	it	lt
 8002e00:	9204      	strlt	r2, [sp, #16]
 8002e02:	7823      	ldrb	r3, [r4, #0]
 8002e04:	2b2e      	cmp	r3, #46	@ 0x2e
 8002e06:	d10a      	bne.n	8002e1e <_vfiprintf_r+0x156>
 8002e08:	7863      	ldrb	r3, [r4, #1]
 8002e0a:	2b2a      	cmp	r3, #42	@ 0x2a
 8002e0c:	d132      	bne.n	8002e74 <_vfiprintf_r+0x1ac>
 8002e0e:	9b03      	ldr	r3, [sp, #12]
 8002e10:	1d1a      	adds	r2, r3, #4
 8002e12:	681b      	ldr	r3, [r3, #0]
 8002e14:	9203      	str	r2, [sp, #12]
 8002e16:	ea43 73e3 	orr.w	r3, r3, r3, asr #31
 8002e1a:	3402      	adds	r4, #2
 8002e1c:	9305      	str	r3, [sp, #20]
 8002e1e:	f8df a0d4 	ldr.w	sl, [pc, #212]	@ 8002ef4 <_vfiprintf_r+0x22c>
 8002e22:	7821      	ldrb	r1, [r4, #0]
 8002e24:	2203      	movs	r2, #3
 8002e26:	4650      	mov	r0, sl
 8002e28:	f7fd f9f2 	bl	8000210 <memchr>
 8002e2c:	b138      	cbz	r0, 8002e3e <_vfiprintf_r+0x176>
 8002e2e:	9b04      	ldr	r3, [sp, #16]
 8002e30:	eba0 000a 	sub.w	r0, r0, sl
 8002e34:	2240      	movs	r2, #64	@ 0x40
 8002e36:	4082      	lsls	r2, r0
 8002e38:	4313      	orrs	r3, r2
 8002e3a:	3401      	adds	r4, #1
 8002e3c:	9304      	str	r3, [sp, #16]
 8002e3e:	f814 1b01 	ldrb.w	r1, [r4], #1
 8002e42:	4829      	ldr	r0, [pc, #164]	@ (8002ee8 <_vfiprintf_r+0x220>)
 8002e44:	f88d 1028 	strb.w	r1, [sp, #40]	@ 0x28
 8002e48:	2206      	movs	r2, #6
 8002e4a:	f7fd f9e1 	bl	8000210 <memchr>
 8002e4e:	2800      	cmp	r0, #0
 8002e50:	d03f      	beq.n	8002ed2 <_vfiprintf_r+0x20a>
 8002e52:	4b26      	ldr	r3, [pc, #152]	@ (8002eec <_vfiprintf_r+0x224>)
 8002e54:	bb1b      	cbnz	r3, 8002e9e <_vfiprintf_r+0x1d6>
 8002e56:	9b03      	ldr	r3, [sp, #12]
 8002e58:	3307      	adds	r3, #7
 8002e5a:	f023 0307 	bic.w	r3, r3, #7
 8002e5e:	3308      	adds	r3, #8
 8002e60:	9303      	str	r3, [sp, #12]
 8002e62:	9b09      	ldr	r3, [sp, #36]	@ 0x24
 8002e64:	443b      	add	r3, r7
 8002e66:	9309      	str	r3, [sp, #36]	@ 0x24
 8002e68:	e76a      	b.n	8002d40 <_vfiprintf_r+0x78>
 8002e6a:	fb0c 3202 	mla	r2, ip, r2, r3
 8002e6e:	460c      	mov	r4, r1
 8002e70:	2001      	movs	r0, #1
 8002e72:	e7a8      	b.n	8002dc6 <_vfiprintf_r+0xfe>
 8002e74:	2300      	movs	r3, #0
 8002e76:	3401      	adds	r4, #1
 8002e78:	9305      	str	r3, [sp, #20]
 8002e7a:	4619      	mov	r1, r3
 8002e7c:	f04f 0c0a 	mov.w	ip, #10
 8002e80:	4620      	mov	r0, r4
 8002e82:	f810 2b01 	ldrb.w	r2, [r0], #1
 8002e86:	3a30      	subs	r2, #48	@ 0x30
 8002e88:	2a09      	cmp	r2, #9
 8002e8a:	d903      	bls.n	8002e94 <_vfiprintf_r+0x1cc>
 8002e8c:	2b00      	cmp	r3, #0
 8002e8e:	d0c6      	beq.n	8002e1e <_vfiprintf_r+0x156>
 8002e90:	9105      	str	r1, [sp, #20]
 8002e92:	e7c4      	b.n	8002e1e <_vfiprintf_r+0x156>
 8002e94:	fb0c 2101 	mla	r1, ip, r1, r2
 8002e98:	4604      	mov	r4, r0
 8002e9a:	2301      	movs	r3, #1
 8002e9c:	e7f0      	b.n	8002e80 <_vfiprintf_r+0x1b8>
 8002e9e:	ab03      	add	r3, sp, #12
 8002ea0:	9300      	str	r3, [sp, #0]
 8002ea2:	462a      	mov	r2, r5
 8002ea4:	4b12      	ldr	r3, [pc, #72]	@ (8002ef0 <_vfiprintf_r+0x228>)
 8002ea6:	a904      	add	r1, sp, #16
 8002ea8:	4630      	mov	r0, r6
 8002eaa:	f3af 8000 	nop.w
 8002eae:	4607      	mov	r7, r0
 8002eb0:	1c78      	adds	r0, r7, #1
 8002eb2:	d1d6      	bne.n	8002e62 <_vfiprintf_r+0x19a>
 8002eb4:	6e6b      	ldr	r3, [r5, #100]	@ 0x64
 8002eb6:	07d9      	lsls	r1, r3, #31
 8002eb8:	d405      	bmi.n	8002ec6 <_vfiprintf_r+0x1fe>
 8002eba:	89ab      	ldrh	r3, [r5, #12]
 8002ebc:	059a      	lsls	r2, r3, #22
 8002ebe:	d402      	bmi.n	8002ec6 <_vfiprintf_r+0x1fe>
 8002ec0:	6da8      	ldr	r0, [r5, #88]	@ 0x58
 8002ec2:	f7ff fddd 	bl	8002a80 <__retarget_lock_release_recursive>
 8002ec6:	89ab      	ldrh	r3, [r5, #12]
 8002ec8:	065b      	lsls	r3, r3, #25
 8002eca:	f53f af1f 	bmi.w	8002d0c <_vfiprintf_r+0x44>
 8002ece:	9809      	ldr	r0, [sp, #36]	@ 0x24
 8002ed0:	e71e      	b.n	8002d10 <_vfiprintf_r+0x48>
 8002ed2:	ab03      	add	r3, sp, #12
 8002ed4:	9300      	str	r3, [sp, #0]
 8002ed6:	462a      	mov	r2, r5
 8002ed8:	4b05      	ldr	r3, [pc, #20]	@ (8002ef0 <_vfiprintf_r+0x228>)
 8002eda:	a904      	add	r1, sp, #16
 8002edc:	4630      	mov	r0, r6
 8002ede:	f000 f879 	bl	8002fd4 <_printf_i>
 8002ee2:	e7e4      	b.n	8002eae <_vfiprintf_r+0x1e6>
 8002ee4:	08003601 	.word	0x08003601
 8002ee8:	0800360b 	.word	0x0800360b
 8002eec:	00000000 	.word	0x00000000
 8002ef0:	08002ca3 	.word	0x08002ca3
 8002ef4:	08003607 	.word	0x08003607

08002ef8 <_printf_common>:
 8002ef8:	e92d 47f0 	stmdb	sp!, {r4, r5, r6, r7, r8, r9, sl, lr}
 8002efc:	4616      	mov	r6, r2
 8002efe:	4698      	mov	r8, r3
 8002f00:	688a      	ldr	r2, [r1, #8]
 8002f02:	690b      	ldr	r3, [r1, #16]
 8002f04:	f8dd 9020 	ldr.w	r9, [sp, #32]
 8002f08:	4293      	cmp	r3, r2
 8002f0a:	bfb8      	it	lt
 8002f0c:	4613      	movlt	r3, r2
 8002f0e:	6033      	str	r3, [r6, #0]
 8002f10:	f891 2043 	ldrb.w	r2, [r1, #67]	@ 0x43
 8002f14:	4607      	mov	r7, r0
 8002f16:	460c      	mov	r4, r1
 8002f18:	b10a      	cbz	r2, 8002f1e <_printf_common+0x26>
 8002f1a:	3301      	adds	r3, #1
 8002f1c:	6033      	str	r3, [r6, #0]
 8002f1e:	6823      	ldr	r3, [r4, #0]
 8002f20:	0699      	lsls	r1, r3, #26
 8002f22:	bf42      	ittt	mi
 8002f24:	6833      	ldrmi	r3, [r6, #0]
 8002f26:	3302      	addmi	r3, #2
 8002f28:	6033      	strmi	r3, [r6, #0]
 8002f2a:	6825      	ldr	r5, [r4, #0]
 8002f2c:	f015 0506 	ands.w	r5, r5, #6
 8002f30:	d106      	bne.n	8002f40 <_printf_common+0x48>
 8002f32:	f104 0a19 	add.w	sl, r4, #25
 8002f36:	68e3      	ldr	r3, [r4, #12]
 8002f38:	6832      	ldr	r2, [r6, #0]
 8002f3a:	1a9b      	subs	r3, r3, r2
 8002f3c:	42ab      	cmp	r3, r5
 8002f3e:	dc26      	bgt.n	8002f8e <_printf_common+0x96>
 8002f40:	f894 3043 	ldrb.w	r3, [r4, #67]	@ 0x43
 8002f44:	6822      	ldr	r2, [r4, #0]
 8002f46:	3b00      	subs	r3, #0
 8002f48:	bf18      	it	ne
 8002f4a:	2301      	movne	r3, #1
 8002f4c:	0692      	lsls	r2, r2, #26
 8002f4e:	d42b      	bmi.n	8002fa8 <_printf_common+0xb0>
 8002f50:	f104 0243 	add.w	r2, r4, #67	@ 0x43
 8002f54:	4641      	mov	r1, r8
 8002f56:	4638      	mov	r0, r7
 8002f58:	47c8      	blx	r9
 8002f5a:	3001      	adds	r0, #1
 8002f5c:	d01e      	beq.n	8002f9c <_printf_common+0xa4>
 8002f5e:	6823      	ldr	r3, [r4, #0]
 8002f60:	6922      	ldr	r2, [r4, #16]
 8002f62:	f003 0306 	and.w	r3, r3, #6
 8002f66:	2b04      	cmp	r3, #4
 8002f68:	bf02      	ittt	eq
 8002f6a:	68e5      	ldreq	r5, [r4, #12]
 8002f6c:	6833      	ldreq	r3, [r6, #0]
 8002f6e:	1aed      	subeq	r5, r5, r3
 8002f70:	68a3      	ldr	r3, [r4, #8]
 8002f72:	bf0c      	ite	eq
 8002f74:	ea25 75e5 	biceq.w	r5, r5, r5, asr #31
 8002f78:	2500      	movne	r5, #0
 8002f7a:	4293      	cmp	r3, r2
 8002f7c:	bfc4      	itt	gt
 8002f7e:	1a9b      	subgt	r3, r3, r2
 8002f80:	18ed      	addgt	r5, r5, r3
 8002f82:	2600      	movs	r6, #0
 8002f84:	341a      	adds	r4, #26
 8002f86:	42b5      	cmp	r5, r6
 8002f88:	d11a      	bne.n	8002fc0 <_printf_common+0xc8>
 8002f8a:	2000      	movs	r0, #0
 8002f8c:	e008      	b.n	8002fa0 <_printf_common+0xa8>
 8002f8e:	2301      	movs	r3, #1
 8002f90:	4652      	mov	r2, sl
 8002f92:	4641      	mov	r1, r8
 8002f94:	4638      	mov	r0, r7
 8002f96:	47c8      	blx	r9
 8002f98:	3001      	adds	r0, #1
 8002f9a:	d103      	bne.n	8002fa4 <_printf_common+0xac>
 8002f9c:	f04f 30ff 	mov.w	r0, #4294967295
 8002fa0:	e8bd 87f0 	ldmia.w	sp!, {r4, r5, r6, r7, r8, r9, sl, pc}
 8002fa4:	3501      	adds	r5, #1
 8002fa6:	e7c6      	b.n	8002f36 <_printf_common+0x3e>
 8002fa8:	18e1      	adds	r1, r4, r3
 8002faa:	1c5a      	adds	r2, r3, #1
 8002fac:	2030      	movs	r0, #48	@ 0x30
 8002fae:	f881 0043 	strb.w	r0, [r1, #67]	@ 0x43
 8002fb2:	4422      	add	r2, r4
 8002fb4:	f894 1045 	ldrb.w	r1, [r4, #69]	@ 0x45
 8002fb8:	f882 1043 	strb.w	r1, [r2, #67]	@ 0x43
 8002fbc:	3302      	adds	r3, #2
 8002fbe:	e7c7      	b.n	8002f50 <_printf_common+0x58>
 8002fc0:	2301      	movs	r3, #1
 8002fc2:	4622      	mov	r2, r4
 8002fc4:	4641      	mov	r1, r8
 8002fc6:	4638      	mov	r0, r7
 8002fc8:	47c8      	blx	r9
 8002fca:	3001      	adds	r0, #1
 8002fcc:	d0e6      	beq.n	8002f9c <_printf_common+0xa4>
 8002fce:	3601      	adds	r6, #1
 8002fd0:	e7d9      	b.n	8002f86 <_printf_common+0x8e>
	...

08002fd4 <_printf_i>:
 8002fd4:	e92d 47ff 	stmdb	sp!, {r0, r1, r2, r3, r4, r5, r6, r7, r8, r9, sl, lr}
 8002fd8:	7e0f      	ldrb	r7, [r1, #24]
 8002fda:	9e0c      	ldr	r6, [sp, #48]	@ 0x30
 8002fdc:	2f78      	cmp	r7, #120	@ 0x78
 8002fde:	4691      	mov	r9, r2
 8002fe0:	4680      	mov	r8, r0
 8002fe2:	460c      	mov	r4, r1
 8002fe4:	469a      	mov	sl, r3
 8002fe6:	f101 0243 	add.w	r2, r1, #67	@ 0x43
 8002fea:	d807      	bhi.n	8002ffc <_printf_i+0x28>
 8002fec:	2f62      	cmp	r7, #98	@ 0x62
 8002fee:	d80a      	bhi.n	8003006 <_printf_i+0x32>
 8002ff0:	2f00      	cmp	r7, #0
 8002ff2:	f000 80d1 	beq.w	8003198 <_printf_i+0x1c4>
 8002ff6:	2f58      	cmp	r7, #88	@ 0x58
 8002ff8:	f000 80b8 	beq.w	800316c <_printf_i+0x198>
 8002ffc:	f104 0642 	add.w	r6, r4, #66	@ 0x42
 8003000:	f884 7042 	strb.w	r7, [r4, #66]	@ 0x42
 8003004:	e03a      	b.n	800307c <_printf_i+0xa8>
 8003006:	f1a7 0363 	sub.w	r3, r7, #99	@ 0x63
 800300a:	2b15      	cmp	r3, #21
 800300c:	d8f6      	bhi.n	8002ffc <_printf_i+0x28>
 800300e:	a101      	add	r1, pc, #4	@ (adr r1, 8003014 <_printf_i+0x40>)
 8003010:	f851 f023 	ldr.w	pc, [r1, r3, lsl #2]
 8003014:	0800306d 	.word	0x0800306d
 8003018:	08003081 	.word	0x08003081
 800301c:	08002ffd 	.word	0x08002ffd
 8003020:	08002ffd 	.word	0x08002ffd
 8003024:	08002ffd 	.word	0x08002ffd
 8003028:	08002ffd 	.word	0x08002ffd
 800302c:	08003081 	.word	0x08003081
 8003030:	08002ffd 	.word	0x08002ffd
 8003034:	08002ffd 	.word	0x08002ffd
 8003038:	08002ffd 	.word	0x08002ffd
 800303c:	08002ffd 	.word	0x08002ffd
 8003040:	0800317f 	.word	0x0800317f
 8003044:	080030ab 	.word	0x080030ab
 8003048:	08003139 	.word	0x08003139
 800304c:	08002ffd 	.word	0x08002ffd
 8003050:	08002ffd 	.word	0x08002ffd
 8003054:	080031a1 	.word	0x080031a1
 8003058:	08002ffd 	.word	0x08002ffd
 800305c:	080030ab 	.word	0x080030ab
 8003060:	08002ffd 	.word	0x08002ffd
 8003064:	08002ffd 	.word	0x08002ffd
 8003068:	08003141 	.word	0x08003141
 800306c:	6833      	ldr	r3, [r6, #0]
 800306e:	1d1a      	adds	r2, r3, #4
 8003070:	681b      	ldr	r3, [r3, #0]
 8003072:	6032      	str	r2, [r6, #0]
 8003074:	f104 0642 	add.w	r6, r4, #66	@ 0x42
 8003078:	f884 3042 	strb.w	r3, [r4, #66]	@ 0x42
 800307c:	2301      	movs	r3, #1
 800307e:	e09c      	b.n	80031ba <_printf_i+0x1e6>
 8003080:	6833      	ldr	r3, [r6, #0]
 8003082:	6820      	ldr	r0, [r4, #0]
 8003084:	1d19      	adds	r1, r3, #4
 8003086:	6031      	str	r1, [r6, #0]
 8003088:	0606      	lsls	r6, r0, #24
 800308a:	d501      	bpl.n	8003090 <_printf_i+0xbc>
 800308c:	681d      	ldr	r5, [r3, #0]
 800308e:	e003      	b.n	8003098 <_printf_i+0xc4>
 8003090:	0645      	lsls	r5, r0, #25
 8003092:	d5fb      	bpl.n	800308c <_printf_i+0xb8>
 8003094:	f9b3 5000 	ldrsh.w	r5, [r3]
 8003098:	2d00      	cmp	r5, #0
 800309a:	da03      	bge.n	80030a4 <_printf_i+0xd0>
 800309c:	232d      	movs	r3, #45	@ 0x2d
 800309e:	426d      	negs	r5, r5
 80030a0:	f884 3043 	strb.w	r3, [r4, #67]	@ 0x43
 80030a4:	4858      	ldr	r0, [pc, #352]	@ (8003208 <_printf_i+0x234>)
 80030a6:	230a      	movs	r3, #10
 80030a8:	e011      	b.n	80030ce <_printf_i+0xfa>
 80030aa:	6821      	ldr	r1, [r4, #0]
 80030ac:	6833      	ldr	r3, [r6, #0]
 80030ae:	0608      	lsls	r0, r1, #24
 80030b0:	f853 5b04 	ldr.w	r5, [r3], #4
 80030b4:	d402      	bmi.n	80030bc <_printf_i+0xe8>
 80030b6:	0649      	lsls	r1, r1, #25
 80030b8:	bf48      	it	mi
 80030ba:	b2ad      	uxthmi	r5, r5
 80030bc:	2f6f      	cmp	r7, #111	@ 0x6f
 80030be:	4852      	ldr	r0, [pc, #328]	@ (8003208 <_printf_i+0x234>)
 80030c0:	6033      	str	r3, [r6, #0]
 80030c2:	bf14      	ite	ne
 80030c4:	230a      	movne	r3, #10
 80030c6:	2308      	moveq	r3, #8
 80030c8:	2100      	movs	r1, #0
 80030ca:	f884 1043 	strb.w	r1, [r4, #67]	@ 0x43
 80030ce:	6866      	ldr	r6, [r4, #4]
 80030d0:	60a6      	str	r6, [r4, #8]
 80030d2:	2e00      	cmp	r6, #0
 80030d4:	db05      	blt.n	80030e2 <_printf_i+0x10e>
 80030d6:	6821      	ldr	r1, [r4, #0]
 80030d8:	432e      	orrs	r6, r5
 80030da:	f021 0104 	bic.w	r1, r1, #4
 80030de:	6021      	str	r1, [r4, #0]
 80030e0:	d04b      	beq.n	800317a <_printf_i+0x1a6>
 80030e2:	4616      	mov	r6, r2
 80030e4:	fbb5 f1f3 	udiv	r1, r5, r3
 80030e8:	fb03 5711 	mls	r7, r3, r1, r5
 80030ec:	5dc7      	ldrb	r7, [r0, r7]
 80030ee:	f806 7d01 	strb.w	r7, [r6, #-1]!
 80030f2:	462f      	mov	r7, r5
 80030f4:	42bb      	cmp	r3, r7
 80030f6:	460d      	mov	r5, r1
 80030f8:	d9f4      	bls.n	80030e4 <_printf_i+0x110>
 80030fa:	2b08      	cmp	r3, #8
 80030fc:	d10b      	bne.n	8003116 <_printf_i+0x142>
 80030fe:	6823      	ldr	r3, [r4, #0]
 8003100:	07df      	lsls	r7, r3, #31
 8003102:	d508      	bpl.n	8003116 <_printf_i+0x142>
 8003104:	6923      	ldr	r3, [r4, #16]
 8003106:	6861      	ldr	r1, [r4, #4]
 8003108:	4299      	cmp	r1, r3
 800310a:	bfde      	ittt	le
 800310c:	2330      	movle	r3, #48	@ 0x30
 800310e:	f806 3c01 	strble.w	r3, [r6, #-1]
 8003112:	f106 36ff 	addle.w	r6, r6, #4294967295
 8003116:	1b92      	subs	r2, r2, r6
 8003118:	6122      	str	r2, [r4, #16]
 800311a:	f8cd a000 	str.w	sl, [sp]
 800311e:	464b      	mov	r3, r9
 8003120:	aa03      	add	r2, sp, #12
 8003122:	4621      	mov	r1, r4
 8003124:	4640      	mov	r0, r8
 8003126:	f7ff fee7 	bl	8002ef8 <_printf_common>
 800312a:	3001      	adds	r0, #1
 800312c:	d14a      	bne.n	80031c4 <_printf_i+0x1f0>
 800312e:	f04f 30ff 	mov.w	r0, #4294967295
 8003132:	b004      	add	sp, #16
 8003134:	e8bd 87f0 	ldmia.w	sp!, {r4, r5, r6, r7, r8, r9, sl, pc}
 8003138:	6823      	ldr	r3, [r4, #0]
 800313a:	f043 0320 	orr.w	r3, r3, #32
 800313e:	6023      	str	r3, [r4, #0]
 8003140:	4832      	ldr	r0, [pc, #200]	@ (800320c <_printf_i+0x238>)
 8003142:	2778      	movs	r7, #120	@ 0x78
 8003144:	f884 7045 	strb.w	r7, [r4, #69]	@ 0x45
 8003148:	6823      	ldr	r3, [r4, #0]
 800314a:	6831      	ldr	r1, [r6, #0]
 800314c:	061f      	lsls	r7, r3, #24
 800314e:	f851 5b04 	ldr.w	r5, [r1], #4
 8003152:	d402      	bmi.n	800315a <_printf_i+0x186>
 8003154:	065f      	lsls	r7, r3, #25
 8003156:	bf48      	it	mi
 8003158:	b2ad      	uxthmi	r5, r5
 800315a:	6031      	str	r1, [r6, #0]
 800315c:	07d9      	lsls	r1, r3, #31
 800315e:	bf44      	itt	mi
 8003160:	f043 0320 	orrmi.w	r3, r3, #32
 8003164:	6023      	strmi	r3, [r4, #0]
 8003166:	b11d      	cbz	r5, 8003170 <_printf_i+0x19c>
 8003168:	2310      	movs	r3, #16
 800316a:	e7ad      	b.n	80030c8 <_printf_i+0xf4>
 800316c:	4826      	ldr	r0, [pc, #152]	@ (8003208 <_printf_i+0x234>)
 800316e:	e7e9      	b.n	8003144 <_printf_i+0x170>
 8003170:	6823      	ldr	r3, [r4, #0]
 8003172:	f023 0320 	bic.w	r3, r3, #32
 8003176:	6023      	str	r3, [r4, #0]
 8003178:	e7f6      	b.n	8003168 <_printf_i+0x194>
 800317a:	4616      	mov	r6, r2
 800317c:	e7bd      	b.n	80030fa <_printf_i+0x126>
 800317e:	6833      	ldr	r3, [r6, #0]
 8003180:	6825      	ldr	r5, [r4, #0]
 8003182:	6961      	ldr	r1, [r4, #20]
 8003184:	1d18      	adds	r0, r3, #4
 8003186:	6030      	str	r0, [r6, #0]
 8003188:	062e      	lsls	r6, r5, #24
 800318a:	681b      	ldr	r3, [r3, #0]
 800318c:	d501      	bpl.n	8003192 <_printf_i+0x1be>
 800318e:	6019      	str	r1, [r3, #0]
 8003190:	e002      	b.n	8003198 <_printf_i+0x1c4>
 8003192:	0668      	lsls	r0, r5, #25
 8003194:	d5fb      	bpl.n	800318e <_printf_i+0x1ba>
 8003196:	8019      	strh	r1, [r3, #0]
 8003198:	2300      	movs	r3, #0
 800319a:	6123      	str	r3, [r4, #16]
 800319c:	4616      	mov	r6, r2
 800319e:	e7bc      	b.n	800311a <_printf_i+0x146>
 80031a0:	6833      	ldr	r3, [r6, #0]
 80031a2:	1d1a      	adds	r2, r3, #4
 80031a4:	6032      	str	r2, [r6, #0]
 80031a6:	681e      	ldr	r6, [r3, #0]
 80031a8:	6862      	ldr	r2, [r4, #4]
 80031aa:	2100      	movs	r1, #0
 80031ac:	4630      	mov	r0, r6
 80031ae:	f7fd f82f 	bl	8000210 <memchr>
 80031b2:	b108      	cbz	r0, 80031b8 <_printf_i+0x1e4>
 80031b4:	1b80      	subs	r0, r0, r6
 80031b6:	6060      	str	r0, [r4, #4]
 80031b8:	6863      	ldr	r3, [r4, #4]
 80031ba:	6123      	str	r3, [r4, #16]
 80031bc:	2300      	movs	r3, #0
 80031be:	f884 3043 	strb.w	r3, [r4, #67]	@ 0x43
 80031c2:	e7aa      	b.n	800311a <_printf_i+0x146>
 80031c4:	6923      	ldr	r3, [r4, #16]
 80031c6:	4632      	mov	r2, r6
 80031c8:	4649      	mov	r1, r9
 80031ca:	4640      	mov	r0, r8
 80031cc:	47d0      	blx	sl
 80031ce:	3001      	adds	r0, #1
 80031d0:	d0ad      	beq.n	800312e <_printf_i+0x15a>
 80031d2:	6823      	ldr	r3, [r4, #0]
 80031d4:	079b      	lsls	r3, r3, #30
 80031d6:	d413      	bmi.n	8003200 <_printf_i+0x22c>
 80031d8:	68e0      	ldr	r0, [r4, #12]
 80031da:	9b03      	ldr	r3, [sp, #12]
 80031dc:	4298      	cmp	r0, r3
 80031de:	bfb8      	it	lt
 80031e0:	4618      	movlt	r0, r3
 80031e2:	e7a6      	b.n	8003132 <_printf_i+0x15e>
 80031e4:	2301      	movs	r3, #1
 80031e6:	4632      	mov	r2, r6
 80031e8:	4649      	mov	r1, r9
 80031ea:	4640      	mov	r0, r8
 80031ec:	47d0      	blx	sl
 80031ee:	3001      	adds	r0, #1
 80031f0:	d09d      	beq.n	800312e <_printf_i+0x15a>
 80031f2:	3501      	adds	r5, #1
 80031f4:	68e3      	ldr	r3, [r4, #12]
 80031f6:	9903      	ldr	r1, [sp, #12]
 80031f8:	1a5b      	subs	r3, r3, r1
 80031fa:	42ab      	cmp	r3, r5
 80031fc:	dcf2      	bgt.n	80031e4 <_printf_i+0x210>
 80031fe:	e7eb      	b.n	80031d8 <_printf_i+0x204>
 8003200:	2500      	movs	r5, #0
 8003202:	f104 0619 	add.w	r6, r4, #25
 8003206:	e7f5      	b.n	80031f4 <_printf_i+0x220>
 8003208:	08003612 	.word	0x08003612
 800320c:	08003623 	.word	0x08003623

08003210 <__sflush_r>:
 8003210:	f9b1 200c 	ldrsh.w	r2, [r1, #12]
 8003214:	e92d 41f0 	stmdb	sp!, {r4, r5, r6, r7, r8, lr}
 8003218:	0716      	lsls	r6, r2, #28
 800321a:	4605      	mov	r5, r0
 800321c:	460c      	mov	r4, r1
 800321e:	d454      	bmi.n	80032ca <__sflush_r+0xba>
 8003220:	684b      	ldr	r3, [r1, #4]
 8003222:	2b00      	cmp	r3, #0
 8003224:	dc02      	bgt.n	800322c <__sflush_r+0x1c>
 8003226:	6c0b      	ldr	r3, [r1, #64]	@ 0x40
 8003228:	2b00      	cmp	r3, #0
 800322a:	dd48      	ble.n	80032be <__sflush_r+0xae>
 800322c:	6ae6      	ldr	r6, [r4, #44]	@ 0x2c
 800322e:	2e00      	cmp	r6, #0
 8003230:	d045      	beq.n	80032be <__sflush_r+0xae>
 8003232:	2300      	movs	r3, #0
 8003234:	f412 5280 	ands.w	r2, r2, #4096	@ 0x1000
 8003238:	682f      	ldr	r7, [r5, #0]
 800323a:	6a21      	ldr	r1, [r4, #32]
 800323c:	602b      	str	r3, [r5, #0]
 800323e:	d030      	beq.n	80032a2 <__sflush_r+0x92>
 8003240:	6d62      	ldr	r2, [r4, #84]	@ 0x54
 8003242:	89a3      	ldrh	r3, [r4, #12]
 8003244:	0759      	lsls	r1, r3, #29
 8003246:	d505      	bpl.n	8003254 <__sflush_r+0x44>
 8003248:	6863      	ldr	r3, [r4, #4]
 800324a:	1ad2      	subs	r2, r2, r3
 800324c:	6b63      	ldr	r3, [r4, #52]	@ 0x34
 800324e:	b10b      	cbz	r3, 8003254 <__sflush_r+0x44>
 8003250:	6c23      	ldr	r3, [r4, #64]	@ 0x40
 8003252:	1ad2      	subs	r2, r2, r3
 8003254:	2300      	movs	r3, #0
 8003256:	6ae6      	ldr	r6, [r4, #44]	@ 0x2c
 8003258:	6a21      	ldr	r1, [r4, #32]
 800325a:	4628      	mov	r0, r5
 800325c:	47b0      	blx	r6
 800325e:	1c43      	adds	r3, r0, #1
 8003260:	89a3      	ldrh	r3, [r4, #12]
 8003262:	d106      	bne.n	8003272 <__sflush_r+0x62>
 8003264:	6829      	ldr	r1, [r5, #0]
 8003266:	291d      	cmp	r1, #29
 8003268:	d82b      	bhi.n	80032c2 <__sflush_r+0xb2>
 800326a:	4a2a      	ldr	r2, [pc, #168]	@ (8003314 <__sflush_r+0x104>)
 800326c:	40ca      	lsrs	r2, r1
 800326e:	07d6      	lsls	r6, r2, #31
 8003270:	d527      	bpl.n	80032c2 <__sflush_r+0xb2>
 8003272:	2200      	movs	r2, #0
 8003274:	6062      	str	r2, [r4, #4]
 8003276:	04d9      	lsls	r1, r3, #19
 8003278:	6922      	ldr	r2, [r4, #16]
 800327a:	6022      	str	r2, [r4, #0]
 800327c:	d504      	bpl.n	8003288 <__sflush_r+0x78>
 800327e:	1c42      	adds	r2, r0, #1
 8003280:	d101      	bne.n	8003286 <__sflush_r+0x76>
 8003282:	682b      	ldr	r3, [r5, #0]
 8003284:	b903      	cbnz	r3, 8003288 <__sflush_r+0x78>
 8003286:	6560      	str	r0, [r4, #84]	@ 0x54
 8003288:	6b61      	ldr	r1, [r4, #52]	@ 0x34
 800328a:	602f      	str	r7, [r5, #0]
 800328c:	b1b9      	cbz	r1, 80032be <__sflush_r+0xae>
 800328e:	f104 0344 	add.w	r3, r4, #68	@ 0x44
 8003292:	4299      	cmp	r1, r3
 8003294:	d002      	beq.n	800329c <__sflush_r+0x8c>
 8003296:	4628      	mov	r0, r5
 8003298:	f7ff fbf4 	bl	8002a84 <_free_r>
 800329c:	2300      	movs	r3, #0
 800329e:	6363      	str	r3, [r4, #52]	@ 0x34
 80032a0:	e00d      	b.n	80032be <__sflush_r+0xae>
 80032a2:	2301      	movs	r3, #1
 80032a4:	4628      	mov	r0, r5
 80032a6:	47b0      	blx	r6
 80032a8:	4602      	mov	r2, r0
 80032aa:	1c50      	adds	r0, r2, #1
 80032ac:	d1c9      	bne.n	8003242 <__sflush_r+0x32>
 80032ae:	682b      	ldr	r3, [r5, #0]
 80032b0:	2b00      	cmp	r3, #0
 80032b2:	d0c6      	beq.n	8003242 <__sflush_r+0x32>
 80032b4:	2b1d      	cmp	r3, #29
 80032b6:	d001      	beq.n	80032bc <__sflush_r+0xac>
 80032b8:	2b16      	cmp	r3, #22
 80032ba:	d11e      	bne.n	80032fa <__sflush_r+0xea>
 80032bc:	602f      	str	r7, [r5, #0]
 80032be:	2000      	movs	r0, #0
 80032c0:	e022      	b.n	8003308 <__sflush_r+0xf8>
 80032c2:	f043 0340 	orr.w	r3, r3, #64	@ 0x40
 80032c6:	b21b      	sxth	r3, r3
 80032c8:	e01b      	b.n	8003302 <__sflush_r+0xf2>
 80032ca:	690f      	ldr	r7, [r1, #16]
 80032cc:	2f00      	cmp	r7, #0
 80032ce:	d0f6      	beq.n	80032be <__sflush_r+0xae>
 80032d0:	0793      	lsls	r3, r2, #30
 80032d2:	680e      	ldr	r6, [r1, #0]
 80032d4:	bf08      	it	eq
 80032d6:	694b      	ldreq	r3, [r1, #20]
 80032d8:	600f      	str	r7, [r1, #0]
 80032da:	bf18      	it	ne
 80032dc:	2300      	movne	r3, #0
 80032de:	eba6 0807 	sub.w	r8, r6, r7
 80032e2:	608b      	str	r3, [r1, #8]
 80032e4:	f1b8 0f00 	cmp.w	r8, #0
 80032e8:	dde9      	ble.n	80032be <__sflush_r+0xae>
 80032ea:	6a21      	ldr	r1, [r4, #32]
 80032ec:	6aa6      	ldr	r6, [r4, #40]	@ 0x28
 80032ee:	4643      	mov	r3, r8
 80032f0:	463a      	mov	r2, r7
 80032f2:	4628      	mov	r0, r5
 80032f4:	47b0      	blx	r6
 80032f6:	2800      	cmp	r0, #0
 80032f8:	dc08      	bgt.n	800330c <__sflush_r+0xfc>
 80032fa:	f9b4 300c 	ldrsh.w	r3, [r4, #12]
 80032fe:	f043 0340 	orr.w	r3, r3, #64	@ 0x40
 8003302:	81a3      	strh	r3, [r4, #12]
 8003304:	f04f 30ff 	mov.w	r0, #4294967295
 8003308:	e8bd 81f0 	ldmia.w	sp!, {r4, r5, r6, r7, r8, pc}
 800330c:	4407      	add	r7, r0
 800330e:	eba8 0800 	sub.w	r8, r8, r0
 8003312:	e7e7      	b.n	80032e4 <__sflush_r+0xd4>
 8003314:	20400001 	.word	0x20400001

08003318 <_fflush_r>:
 8003318:	b538      	push	{r3, r4, r5, lr}
 800331a:	690b      	ldr	r3, [r1, #16]
 800331c:	4605      	mov	r5, r0
 800331e:	460c      	mov	r4, r1
 8003320:	b913      	cbnz	r3, 8003328 <_fflush_r+0x10>
 8003322:	2500      	movs	r5, #0
 8003324:	4628      	mov	r0, r5
 8003326:	bd38      	pop	{r3, r4, r5, pc}
 8003328:	b118      	cbz	r0, 8003332 <_fflush_r+0x1a>
 800332a:	6a03      	ldr	r3, [r0, #32]
 800332c:	b90b      	cbnz	r3, 8003332 <_fflush_r+0x1a>
 800332e:	f7ff faa1 	bl	8002874 <__sinit>
 8003332:	f9b4 300c 	ldrsh.w	r3, [r4, #12]
 8003336:	2b00      	cmp	r3, #0
 8003338:	d0f3      	beq.n	8003322 <_fflush_r+0xa>
 800333a:	6e62      	ldr	r2, [r4, #100]	@ 0x64
 800333c:	07d0      	lsls	r0, r2, #31
 800333e:	d404      	bmi.n	800334a <_fflush_r+0x32>
 8003340:	0599      	lsls	r1, r3, #22
 8003342:	d402      	bmi.n	800334a <_fflush_r+0x32>
 8003344:	6da0      	ldr	r0, [r4, #88]	@ 0x58
 8003346:	f7ff fb9a 	bl	8002a7e <__retarget_lock_acquire_recursive>
 800334a:	4628      	mov	r0, r5
 800334c:	4621      	mov	r1, r4
 800334e:	f7ff ff5f 	bl	8003210 <__sflush_r>
 8003352:	6e63      	ldr	r3, [r4, #100]	@ 0x64
 8003354:	07da      	lsls	r2, r3, #31
 8003356:	4605      	mov	r5, r0
 8003358:	d4e4      	bmi.n	8003324 <_fflush_r+0xc>
 800335a:	89a3      	ldrh	r3, [r4, #12]
 800335c:	059b      	lsls	r3, r3, #22
 800335e:	d4e1      	bmi.n	8003324 <_fflush_r+0xc>
 8003360:	6da0      	ldr	r0, [r4, #88]	@ 0x58
 8003362:	f7ff fb8d 	bl	8002a80 <__retarget_lock_release_recursive>
 8003366:	e7dd      	b.n	8003324 <_fflush_r+0xc>

08003368 <__swbuf_r>:
 8003368:	b5f8      	push	{r3, r4, r5, r6, r7, lr}
 800336a:	460e      	mov	r6, r1
 800336c:	4614      	mov	r4, r2
 800336e:	4605      	mov	r5, r0
 8003370:	b118      	cbz	r0, 800337a <__swbuf_r+0x12>
 8003372:	6a03      	ldr	r3, [r0, #32]
 8003374:	b90b      	cbnz	r3, 800337a <__swbuf_r+0x12>
 8003376:	f7ff fa7d 	bl	8002874 <__sinit>
 800337a:	69a3      	ldr	r3, [r4, #24]
 800337c:	60a3      	str	r3, [r4, #8]
 800337e:	89a3      	ldrh	r3, [r4, #12]
 8003380:	071a      	lsls	r2, r3, #28
 8003382:	d501      	bpl.n	8003388 <__swbuf_r+0x20>
 8003384:	6923      	ldr	r3, [r4, #16]
 8003386:	b943      	cbnz	r3, 800339a <__swbuf_r+0x32>
 8003388:	4621      	mov	r1, r4
 800338a:	4628      	mov	r0, r5
 800338c:	f000 f82a 	bl	80033e4 <__swsetup_r>
 8003390:	b118      	cbz	r0, 800339a <__swbuf_r+0x32>
 8003392:	f04f 37ff 	mov.w	r7, #4294967295
 8003396:	4638      	mov	r0, r7
 8003398:	bdf8      	pop	{r3, r4, r5, r6, r7, pc}
 800339a:	6823      	ldr	r3, [r4, #0]
 800339c:	6922      	ldr	r2, [r4, #16]
 800339e:	1a98      	subs	r0, r3, r2
 80033a0:	6963      	ldr	r3, [r4, #20]
 80033a2:	b2f6      	uxtb	r6, r6
 80033a4:	4283      	cmp	r3, r0
 80033a6:	4637      	mov	r7, r6
 80033a8:	dc05      	bgt.n	80033b6 <__swbuf_r+0x4e>
 80033aa:	4621      	mov	r1, r4
 80033ac:	4628      	mov	r0, r5
 80033ae:	f7ff ffb3 	bl	8003318 <_fflush_r>
 80033b2:	2800      	cmp	r0, #0
 80033b4:	d1ed      	bne.n	8003392 <__swbuf_r+0x2a>
 80033b6:	68a3      	ldr	r3, [r4, #8]
 80033b8:	3b01      	subs	r3, #1
 80033ba:	60a3      	str	r3, [r4, #8]
 80033bc:	6823      	ldr	r3, [r4, #0]
 80033be:	1c5a      	adds	r2, r3, #1
 80033c0:	6022      	str	r2, [r4, #0]
 80033c2:	701e      	strb	r6, [r3, #0]
 80033c4:	6962      	ldr	r2, [r4, #20]
 80033c6:	1c43      	adds	r3, r0, #1
 80033c8:	429a      	cmp	r2, r3
 80033ca:	d004      	beq.n	80033d6 <__swbuf_r+0x6e>
 80033cc:	89a3      	ldrh	r3, [r4, #12]
 80033ce:	07db      	lsls	r3, r3, #31
 80033d0:	d5e1      	bpl.n	8003396 <__swbuf_r+0x2e>
 80033d2:	2e0a      	cmp	r6, #10
 80033d4:	d1df      	bne.n	8003396 <__swbuf_r+0x2e>
 80033d6:	4621      	mov	r1, r4
 80033d8:	4628      	mov	r0, r5
 80033da:	f7ff ff9d 	bl	8003318 <_fflush_r>
 80033de:	2800      	cmp	r0, #0
 80033e0:	d0d9      	beq.n	8003396 <__swbuf_r+0x2e>
 80033e2:	e7d6      	b.n	8003392 <__swbuf_r+0x2a>

080033e4 <__swsetup_r>:
 80033e4:	b538      	push	{r3, r4, r5, lr}
 80033e6:	4b29      	ldr	r3, [pc, #164]	@ (800348c <__swsetup_r+0xa8>)
 80033e8:	4605      	mov	r5, r0
 80033ea:	6818      	ldr	r0, [r3, #0]
 80033ec:	460c      	mov	r4, r1
 80033ee:	b118      	cbz	r0, 80033f8 <__swsetup_r+0x14>
 80033f0:	6a03      	ldr	r3, [r0, #32]
 80033f2:	b90b      	cbnz	r3, 80033f8 <__swsetup_r+0x14>
 80033f4:	f7ff fa3e 	bl	8002874 <__sinit>
 80033f8:	f9b4 300c 	ldrsh.w	r3, [r4, #12]
 80033fc:	0719      	lsls	r1, r3, #28
 80033fe:	d422      	bmi.n	8003446 <__swsetup_r+0x62>
 8003400:	06da      	lsls	r2, r3, #27
 8003402:	d407      	bmi.n	8003414 <__swsetup_r+0x30>
 8003404:	2209      	movs	r2, #9
 8003406:	602a      	str	r2, [r5, #0]
 8003408:	f043 0340 	orr.w	r3, r3, #64	@ 0x40
 800340c:	81a3      	strh	r3, [r4, #12]
 800340e:	f04f 30ff 	mov.w	r0, #4294967295
 8003412:	e033      	b.n	800347c <__swsetup_r+0x98>
 8003414:	0758      	lsls	r0, r3, #29
 8003416:	d512      	bpl.n	800343e <__swsetup_r+0x5a>
 8003418:	6b61      	ldr	r1, [r4, #52]	@ 0x34
 800341a:	b141      	cbz	r1, 800342e <__swsetup_r+0x4a>
 800341c:	f104 0344 	add.w	r3, r4, #68	@ 0x44
 8003420:	4299      	cmp	r1, r3
 8003422:	d002      	beq.n	800342a <__swsetup_r+0x46>
 8003424:	4628      	mov	r0, r5
 8003426:	f7ff fb2d 	bl	8002a84 <_free_r>
 800342a:	2300      	movs	r3, #0
 800342c:	6363      	str	r3, [r4, #52]	@ 0x34
 800342e:	89a3      	ldrh	r3, [r4, #12]
 8003430:	f023 0324 	bic.w	r3, r3, #36	@ 0x24
 8003434:	81a3      	strh	r3, [r4, #12]
 8003436:	2300      	movs	r3, #0
 8003438:	6063      	str	r3, [r4, #4]
 800343a:	6923      	ldr	r3, [r4, #16]
 800343c:	6023      	str	r3, [r4, #0]
 800343e:	89a3      	ldrh	r3, [r4, #12]
 8003440:	f043 0308 	orr.w	r3, r3, #8
 8003444:	81a3      	strh	r3, [r4, #12]
 8003446:	6923      	ldr	r3, [r4, #16]
 8003448:	b94b      	cbnz	r3, 800345e <__swsetup_r+0x7a>
 800344a:	89a3      	ldrh	r3, [r4, #12]
 800344c:	f403 7320 	and.w	r3, r3, #640	@ 0x280
 8003450:	f5b3 7f00 	cmp.w	r3, #512	@ 0x200
 8003454:	d003      	beq.n	800345e <__swsetup_r+0x7a>
 8003456:	4621      	mov	r1, r4
 8003458:	4628      	mov	r0, r5
 800345a:	f000 f84f 	bl	80034fc <__smakebuf_r>
 800345e:	f9b4 300c 	ldrsh.w	r3, [r4, #12]
 8003462:	f013 0201 	ands.w	r2, r3, #1
 8003466:	d00a      	beq.n	800347e <__swsetup_r+0x9a>
 8003468:	2200      	movs	r2, #0
 800346a:	60a2      	str	r2, [r4, #8]
 800346c:	6962      	ldr	r2, [r4, #20]
 800346e:	4252      	negs	r2, r2
 8003470:	61a2      	str	r2, [r4, #24]
 8003472:	6922      	ldr	r2, [r4, #16]
 8003474:	b942      	cbnz	r2, 8003488 <__swsetup_r+0xa4>
 8003476:	f013 0080 	ands.w	r0, r3, #128	@ 0x80
 800347a:	d1c5      	bne.n	8003408 <__swsetup_r+0x24>
 800347c:	bd38      	pop	{r3, r4, r5, pc}
 800347e:	0799      	lsls	r1, r3, #30
 8003480:	bf58      	it	pl
 8003482:	6962      	ldrpl	r2, [r4, #20]
 8003484:	60a2      	str	r2, [r4, #8]
 8003486:	e7f4      	b.n	8003472 <__swsetup_r+0x8e>
 8003488:	2000      	movs	r0, #0
 800348a:	e7f7      	b.n	800347c <__swsetup_r+0x98>
 800348c:	20000018 	.word	0x20000018

08003490 <_sbrk_r>:
 8003490:	b538      	push	{r3, r4, r5, lr}
 8003492:	4d06      	ldr	r5, [pc, #24]	@ (80034ac <_sbrk_r+0x1c>)
 8003494:	2300      	movs	r3, #0
 8003496:	4604      	mov	r4, r0
 8003498:	4608      	mov	r0, r1
 800349a:	602b      	str	r3, [r5, #0]
 800349c:	f7fd ff20 	bl	80012e0 <_sbrk>
 80034a0:	1c43      	adds	r3, r0, #1
 80034a2:	d102      	bne.n	80034aa <_sbrk_r+0x1a>
 80034a4:	682b      	ldr	r3, [r5, #0]
 80034a6:	b103      	cbz	r3, 80034aa <_sbrk_r+0x1a>
 80034a8:	6023      	str	r3, [r4, #0]
 80034aa:	bd38      	pop	{r3, r4, r5, pc}
 80034ac:	200002a0 	.word	0x200002a0

080034b0 <__swhatbuf_r>:
 80034b0:	b570      	push	{r4, r5, r6, lr}
 80034b2:	460c      	mov	r4, r1
 80034b4:	f9b1 100e 	ldrsh.w	r1, [r1, #14]
 80034b8:	2900      	cmp	r1, #0
 80034ba:	b096      	sub	sp, #88	@ 0x58
 80034bc:	4615      	mov	r5, r2
 80034be:	461e      	mov	r6, r3
 80034c0:	da0d      	bge.n	80034de <__swhatbuf_r+0x2e>
 80034c2:	89a3      	ldrh	r3, [r4, #12]
 80034c4:	f013 0f80 	tst.w	r3, #128	@ 0x80
 80034c8:	f04f 0100 	mov.w	r1, #0
 80034cc:	bf14      	ite	ne
 80034ce:	2340      	movne	r3, #64	@ 0x40
 80034d0:	f44f 6380 	moveq.w	r3, #1024	@ 0x400
 80034d4:	2000      	movs	r0, #0
 80034d6:	6031      	str	r1, [r6, #0]
 80034d8:	602b      	str	r3, [r5, #0]
 80034da:	b016      	add	sp, #88	@ 0x58
 80034dc:	bd70      	pop	{r4, r5, r6, pc}
 80034de:	466a      	mov	r2, sp
 80034e0:	f000 f848 	bl	8003574 <_fstat_r>
 80034e4:	2800      	cmp	r0, #0
 80034e6:	dbec      	blt.n	80034c2 <__swhatbuf_r+0x12>
 80034e8:	9901      	ldr	r1, [sp, #4]
 80034ea:	f401 4170 	and.w	r1, r1, #61440	@ 0xf000
 80034ee:	f5a1 5300 	sub.w	r3, r1, #8192	@ 0x2000
 80034f2:	4259      	negs	r1, r3
 80034f4:	4159      	adcs	r1, r3
 80034f6:	f44f 6380 	mov.w	r3, #1024	@ 0x400
 80034fa:	e7eb      	b.n	80034d4 <__swhatbuf_r+0x24>

080034fc <__smakebuf_r>:
 80034fc:	898b      	ldrh	r3, [r1, #12]
 80034fe:	b5f7      	push	{r0, r1, r2, r4, r5, r6, r7, lr}
 8003500:	079d      	lsls	r5, r3, #30
 8003502:	4606      	mov	r6, r0
 8003504:	460c      	mov	r4, r1
 8003506:	d507      	bpl.n	8003518 <__smakebuf_r+0x1c>
 8003508:	f104 0347 	add.w	r3, r4, #71	@ 0x47
 800350c:	6023      	str	r3, [r4, #0]
 800350e:	6123      	str	r3, [r4, #16]
 8003510:	2301      	movs	r3, #1
 8003512:	6163      	str	r3, [r4, #20]
 8003514:	b003      	add	sp, #12
 8003516:	bdf0      	pop	{r4, r5, r6, r7, pc}
 8003518:	ab01      	add	r3, sp, #4
 800351a:	466a      	mov	r2, sp
 800351c:	f7ff ffc8 	bl	80034b0 <__swhatbuf_r>
 8003520:	9f00      	ldr	r7, [sp, #0]
 8003522:	4605      	mov	r5, r0
 8003524:	4639      	mov	r1, r7
 8003526:	4630      	mov	r0, r6
 8003528:	f7ff fb18 	bl	8002b5c <_malloc_r>
 800352c:	b948      	cbnz	r0, 8003542 <__smakebuf_r+0x46>
 800352e:	f9b4 300c 	ldrsh.w	r3, [r4, #12]
 8003532:	059a      	lsls	r2, r3, #22
 8003534:	d4ee      	bmi.n	8003514 <__smakebuf_r+0x18>
 8003536:	f023 0303 	bic.w	r3, r3, #3
 800353a:	f043 0302 	orr.w	r3, r3, #2
 800353e:	81a3      	strh	r3, [r4, #12]
 8003540:	e7e2      	b.n	8003508 <__smakebuf_r+0xc>
 8003542:	89a3      	ldrh	r3, [r4, #12]
 8003544:	6020      	str	r0, [r4, #0]
 8003546:	f043 0380 	orr.w	r3, r3, #128	@ 0x80
 800354a:	81a3      	strh	r3, [r4, #12]
 800354c:	9b01      	ldr	r3, [sp, #4]
 800354e:	e9c4 0704 	strd	r0, r7, [r4, #16]
 8003552:	b15b      	cbz	r3, 800356c <__smakebuf_r+0x70>
 8003554:	f9b4 100e 	ldrsh.w	r1, [r4, #14]
 8003558:	4630      	mov	r0, r6
 800355a:	f000 f81d 	bl	8003598 <_isatty_r>
 800355e:	b128      	cbz	r0, 800356c <__smakebuf_r+0x70>
 8003560:	89a3      	ldrh	r3, [r4, #12]
 8003562:	f023 0303 	bic.w	r3, r3, #3
 8003566:	f043 0301 	orr.w	r3, r3, #1
 800356a:	81a3      	strh	r3, [r4, #12]
 800356c:	89a3      	ldrh	r3, [r4, #12]
 800356e:	431d      	orrs	r5, r3
 8003570:	81a5      	strh	r5, [r4, #12]
 8003572:	e7cf      	b.n	8003514 <__smakebuf_r+0x18>

08003574 <_fstat_r>:
 8003574:	b538      	push	{r3, r4, r5, lr}
 8003576:	4d07      	ldr	r5, [pc, #28]	@ (8003594 <_fstat_r+0x20>)
 8003578:	2300      	movs	r3, #0
 800357a:	4604      	mov	r4, r0
 800357c:	4608      	mov	r0, r1
 800357e:	4611      	mov	r1, r2
 8003580:	602b      	str	r3, [r5, #0]
 8003582:	f7fd fea4 	bl	80012ce <_fstat>
 8003586:	1c43      	adds	r3, r0, #1
 8003588:	d102      	bne.n	8003590 <_fstat_r+0x1c>
 800358a:	682b      	ldr	r3, [r5, #0]
 800358c:	b103      	cbz	r3, 8003590 <_fstat_r+0x1c>
 800358e:	6023      	str	r3, [r4, #0]
 8003590:	bd38      	pop	{r3, r4, r5, pc}
 8003592:	bf00      	nop
 8003594:	200002a0 	.word	0x200002a0

08003598 <_isatty_r>:
 8003598:	b538      	push	{r3, r4, r5, lr}
 800359a:	4d06      	ldr	r5, [pc, #24]	@ (80035b4 <_isatty_r+0x1c>)
 800359c:	2300      	movs	r3, #0
 800359e:	4604      	mov	r4, r0
 80035a0:	4608      	mov	r0, r1
 80035a2:	602b      	str	r3, [r5, #0]
 80035a4:	f7fd fe98 	bl	80012d8 <_isatty>
 80035a8:	1c43      	adds	r3, r0, #1
 80035aa:	d102      	bne.n	80035b2 <_isatty_r+0x1a>
 80035ac:	682b      	ldr	r3, [r5, #0]
 80035ae:	b103      	cbz	r3, 80035b2 <_isatty_r+0x1a>
 80035b0:	6023      	str	r3, [r4, #0]
 80035b2:	bd38      	pop	{r3, r4, r5, pc}
 80035b4:	200002a0 	.word	0x200002a0

080035b8 <_init>:
 80035b8:	b5f8      	push	{r3, r4, r5, r6, r7, lr}
 80035ba:	bf00      	nop
 80035bc:	bcf8      	pop	{r3, r4, r5, r6, r7}
 80035be:	bc08      	pop	{r3}
 80035c0:	469e      	mov	lr, r3
 80035c2:	4770      	bx	lr

080035c4 <_fini>:
 80035c4:	b5f8      	push	{r3, r4, r5, r6, r7, lr}
 80035c6:	bf00      	nop
 80035c8:	bcf8      	pop	{r3, r4, r5, r6, r7}
 80035ca:	bc08      	pop	{r3}
 80035cc:	469e      	mov	lr, r3
 80035ce:	4770      	bx	lr
